GAS LISTING /var/folders/86/8ymzt0g934z5dpmztl89nd000000gn/T//ccz0jCiT.s 			page 1


   1               		.file	"customprocs.cpp"
   2               	__SP_H__ = 0x3e
   3               	__SP_L__ = 0x3d
   4               	__SREG__ = 0x3f
   5               	__tmp_reg__ = 0
   6               	__zero_reg__ = 1
   7               		.text
   8               	.Ltext0:
   9               		.cfi_sections	.debug_frame
  10               	.global	_Z9cp_strlenPKc
  11               		.type	_Z9cp_strlenPKc, @function
  12               	_Z9cp_strlenPKc:
  13               	.LFB6:
  14               		.file 1 "customprocs.cpp"
   1:customprocs.cpp **** /*
   2:customprocs.cpp **** Custom procedures, mainly related to character arrays.
   3:customprocs.cpp **** Copyright (C) 2009  Philippe Proulx (philippe.proulx@polymtl.ca)
   4:customprocs.cpp **** 
   5:customprocs.cpp **** This program is free software: you can redistribute it and/or modify
   6:customprocs.cpp **** it under the terms of the GNU Lesser General Public License as published by
   7:customprocs.cpp **** the Free Software Foundation, either version 3 of the License, or
   8:customprocs.cpp **** (at your option) any later version.
   9:customprocs.cpp **** 
  10:customprocs.cpp **** This program is distributed in the hope that it will be useful,
  11:customprocs.cpp **** but WITHOUT ANY WARRANTY; without even the implied warranty of
  12:customprocs.cpp **** MERCHANTABILITY or FITNESS FOR A PARTICULAR PURPOSE.  See the
  13:customprocs.cpp **** GNU Lesser General Public License for more details.
  14:customprocs.cpp **** 
  15:customprocs.cpp **** You should have received a copy of the GNU Lesser General Public License
  16:customprocs.cpp **** along with this program.  If not, see <http://www.gnu.org/licenses/>.
  17:customprocs.cpp **** */
  18:customprocs.cpp **** 
  19:customprocs.cpp **** #include <avr/io.h>
  20:customprocs.cpp **** #include <util/delay.h>
  21:customprocs.cpp **** 
  22:customprocs.cpp **** #include "customprocs.h"
  23:customprocs.cpp **** 
  24:customprocs.cpp **** /**
  25:customprocs.cpp ****  * Longueur d'une chaîne ASCIIZ.
  26:customprocs.cpp ****  *
  27:customprocs.cpp ****  * @param str	Chaîne ASCIIZ
  28:customprocs.cpp ****  * @return	Longueur de la chaîne
  29:customprocs.cpp ****  */
  30:customprocs.cpp **** uint16_t cp_strlen(const char* str) {
  15               		.loc 1 30 0
  16               		.cfi_startproc
  17               	.LVL0:
  18               	/* prologue: function */
  19               	/* frame size = 0 */
  20               	/* stack size = 0 */
  21               	.L__stack_usage = 0
  22 0000 FC01      		movw r30,r24
  23 0002 3196      		adiw r30,1
  24               	.LVL1:
  25               	.L3:
  26 0004 9F01      		movw r18,r30
  27 0006 281B      		sub r18,r24
GAS LISTING /var/folders/86/8ymzt0g934z5dpmztl89nd000000gn/T//ccz0jCiT.s 			page 2


  28 0008 390B      		sbc r19,r25
  29               	.LVL2:
  30               	.LBB6:
  31:customprocs.cpp **** 	uint16_t i = '\0';
  32:customprocs.cpp **** 
  33:customprocs.cpp **** 	while (str[++i] != '\0');
  31               		.loc 1 33 0 discriminator 1
  32 000a 4191      		ld r20,Z+
  33 000c 4111      		cpse r20,__zero_reg__
  34 000e 00C0      		rjmp .L3
  35               	.LBE6:
  34:customprocs.cpp **** 
  35:customprocs.cpp **** 	return i;
  36:customprocs.cpp **** }
  36               		.loc 1 36 0
  37 0010 C901      		movw r24,r18
  38               	.LVL3:
  39 0012 0895      		ret
  40               		.cfi_endproc
  41               	.LFE6:
  42               		.size	_Z9cp_strlenPKc, .-_Z9cp_strlenPKc
  43               		.section	.rodata.str1.1,"aMS",@progbits,1
  44               	.LC0:
  45 0000 3031 3233 		.string	"0123456789abcdef"
  45      3435 3637 
  45      3839 6162 
  45      6364 6566 
  45      00
  46               		.text
  47               	.global	_Z7cp_itoaPcjh
  48               		.type	_Z7cp_itoaPcjh, @function
  49               	_Z7cp_itoaPcjh:
  50               	.LFB7:
  37:customprocs.cpp **** 
  38:customprocs.cpp **** /**
  39:customprocs.cpp ****  * Réimplémentation d'un `itoa'.
  40:customprocs.cpp ****  *
  41:customprocs.cpp ****  * @param buf16		Buffer de 16 B à fournir
  42:customprocs.cpp ****  * @param val		Valeur NON signée à convertir
  43:customprocs.cpp ****  * @param base		Base de conversion (2 à 16)
  44:customprocs.cpp ****  * @return		Adresse de la chaîne obtenue
  45:customprocs.cpp ****  */
  46:customprocs.cpp **** char* cp_itoa(char* buf16, uint16_t val, const uint8_t base) {
  51               		.loc 1 46 0
  52               		.cfi_startproc
  53               	.LVL4:
  54 0014 FF92      		push r15
  55               	.LCFI0:
  56               		.cfi_def_cfa_offset 3
  57               		.cfi_offset 15, -2
  58 0016 0F93      		push r16
  59               	.LCFI1:
  60               		.cfi_def_cfa_offset 4
  61               		.cfi_offset 16, -3
  62 0018 1F93      		push r17
  63               	.LCFI2:
  64               		.cfi_def_cfa_offset 5
GAS LISTING /var/folders/86/8ymzt0g934z5dpmztl89nd000000gn/T//ccz0jCiT.s 			page 3


  65               		.cfi_offset 17, -4
  66 001a CF93      		push r28
  67               	.LCFI3:
  68               		.cfi_def_cfa_offset 6
  69               		.cfi_offset 28, -5
  70 001c DF93      		push r29
  71               	.LCFI4:
  72               		.cfi_def_cfa_offset 7
  73               		.cfi_offset 29, -6
  74               	/* prologue: function */
  75               	/* frame size = 0 */
  76               	/* stack size = 5 */
  77               	.L__stack_usage = 5
  78 001e FC01      		movw r30,r24
  79 0020 CB01      		movw r24,r22
  80               	.LVL5:
  81               	.LBB7:
  47:customprocs.cpp **** 	uint8_t i = 14;
  48:customprocs.cpp **** 	buf16[i + 1] = 0;
  82               		.loc 1 48 0
  83 0022 1786      		std Z+15,__zero_reg__
  49:customprocs.cpp **** 
  50:customprocs.cpp **** 	if (val == 0) {
  84               		.loc 1 50 0
  85 0024 0097      		sbiw r24,0
  86 0026 01F4      		brne .L6
  51:customprocs.cpp **** 		buf16[i] = '0';
  87               		.loc 1 51 0
  88 0028 80E3      		ldi r24,lo8(48)
  89 002a 8687      		std Z+14,r24
  52:customprocs.cpp **** 		return &buf16[i];
  90               		.loc 1 52 0
  91 002c CF01      		movw r24,r30
  92 002e 0E96      		adiw r24,14
  93 0030 00C0      		rjmp .L7
  94               	.L6:
  95 0032 EF01      		movw r28,r30
  96 0034 2F96      		adiw r28,15
  50:customprocs.cpp **** 	if (val == 0) {
  97               		.loc 1 50 0
  98 0036 2EE0      		ldi r18,lo8(14)
  99 0038 F22E      		mov r15,r18
  53:customprocs.cpp **** 	}
  54:customprocs.cpp **** 
  55:customprocs.cpp **** 	for(; val && i; --i, val /= base) {
  56:customprocs.cpp **** 		buf16[i] = CP_HEX_CHARLIST[val % base];
 100               		.loc 1 56 0
 101 003a 042F      		mov r16,r20
 102 003c 10E0      		ldi r17,0
 103               	.LVL6:
 104               	.L9:
 105               		.loc 1 56 0 is_stmt 0 discriminator 1
 106 003e B801      		movw r22,r16
 107 0040 0E94 0000 		call __udivmodhi4
 108               	.LVL7:
 109 0044 DC01      		movw r26,r24
 110 0046 A050      		subi r26,lo8(-(.LC0))
GAS LISTING /var/folders/86/8ymzt0g934z5dpmztl89nd000000gn/T//ccz0jCiT.s 			page 4


 111 0048 B040      		sbci r27,hi8(-(.LC0))
 112 004a 8C91      		ld r24,X
 113 004c 8A93      		st -Y,r24
  55:customprocs.cpp **** 	for(; val && i; --i, val /= base) {
 114               		.loc 1 55 0 is_stmt 1 discriminator 1
 115 004e FA94      		dec r15
 116               	.LVL8:
 117 0050 CB01      		movw r24,r22
 118 0052 0097      		sbiw r24,0
 119 0054 01F0      		breq .L8
  55:customprocs.cpp **** 	for(; val && i; --i, val /= base) {
 120               		.loc 1 55 0 is_stmt 0 discriminator 2
 121 0056 F110      		cpse r15,__zero_reg__
 122 0058 00C0      		rjmp .L9
 123               	.L8:
  57:customprocs.cpp **** 	}
  58:customprocs.cpp **** 
  59:customprocs.cpp **** 	return &buf16[i + 1];
 124               		.loc 1 59 0 is_stmt 1
 125 005a 8F2D      		mov r24,r15
 126 005c 90E0      		ldi r25,0
 127 005e 0196      		adiw r24,1
 128 0060 8E0F      		add r24,r30
 129 0062 9F1F      		adc r25,r31
 130               	.LVL9:
 131               	.L7:
 132               	/* epilogue start */
 133               	.LBE7:
  60:customprocs.cpp **** }
 134               		.loc 1 60 0
 135 0064 DF91      		pop r29
 136 0066 CF91      		pop r28
 137 0068 1F91      		pop r17
 138 006a 0F91      		pop r16
 139 006c FF90      		pop r15
 140 006e 0895      		ret
 141               		.cfi_endproc
 142               	.LFE7:
 143               		.size	_Z7cp_itoaPcjh, .-_Z7cp_itoaPcjh
 144               	.global	_Z10cp_wait_msj
 145               		.type	_Z10cp_wait_msj, @function
 146               	_Z10cp_wait_msj:
 147               	.LFB8:
  61:customprocs.cpp **** 
  62:customprocs.cpp **** /**
  63:customprocs.cpp ****  * Attend un nombre de millisecondes.
  64:customprocs.cpp ****  *
  65:customprocs.cpp ****  * @param ms	Nombre de millisecondes à attendre.
  66:customprocs.cpp ****  */
  67:customprocs.cpp **** void cp_wait_ms(const uint16_t ms) {
 148               		.loc 1 67 0
 149               		.cfi_startproc
 150               	.LVL10:
 151               	/* prologue: function */
 152               	/* frame size = 0 */
 153               	/* stack size = 0 */
 154               	.L__stack_usage = 0
GAS LISTING /var/folders/86/8ymzt0g934z5dpmztl89nd000000gn/T//ccz0jCiT.s 			page 5


 155               	.LBB8:
  68:customprocs.cpp **** 	uint16_t i;
  69:customprocs.cpp **** 
  70:customprocs.cpp **** 	for (i = 0; i < ms; ++i) {
 156               		.loc 1 70 0
 157 0070 20E0      		ldi r18,0
 158 0072 30E0      		ldi r19,0
 159               	.LVL11:
 160               	.L17:
 161               		.loc 1 70 0 is_stmt 0 discriminator 1
 162 0074 2817      		cp r18,r24
 163 0076 3907      		cpc r19,r25
 164 0078 01F0      		breq .L19
 165               	.LVL12:
 166               	.LBB9:
 167               	.LBB10:
 168               		.file 2 "/usr/local/CrossPack-AVR-20131216/avr/include/util/delay.h"
   1:/usr/local/CrossPack-AVR-20131216/avr/include/util/delay.h **** /* Copyright (c) 2002, Marek Michalkiewicz
   2:/usr/local/CrossPack-AVR-20131216/avr/include/util/delay.h ****    Copyright (c) 2004,2005,2007 Joerg Wunsch
   3:/usr/local/CrossPack-AVR-20131216/avr/include/util/delay.h ****    Copyright (c) 2007  Florin-Viorel Petrov
   4:/usr/local/CrossPack-AVR-20131216/avr/include/util/delay.h ****    All rights reserved.
   5:/usr/local/CrossPack-AVR-20131216/avr/include/util/delay.h **** 
   6:/usr/local/CrossPack-AVR-20131216/avr/include/util/delay.h ****    Redistribution and use in source and binary forms, with or without
   7:/usr/local/CrossPack-AVR-20131216/avr/include/util/delay.h ****    modification, are permitted provided that the following conditions are met:
   8:/usr/local/CrossPack-AVR-20131216/avr/include/util/delay.h **** 
   9:/usr/local/CrossPack-AVR-20131216/avr/include/util/delay.h ****    * Redistributions of source code must retain the above copyright
  10:/usr/local/CrossPack-AVR-20131216/avr/include/util/delay.h ****      notice, this list of conditions and the following disclaimer.
  11:/usr/local/CrossPack-AVR-20131216/avr/include/util/delay.h **** 
  12:/usr/local/CrossPack-AVR-20131216/avr/include/util/delay.h ****    * Redistributions in binary form must reproduce the above copyright
  13:/usr/local/CrossPack-AVR-20131216/avr/include/util/delay.h ****      notice, this list of conditions and the following disclaimer in
  14:/usr/local/CrossPack-AVR-20131216/avr/include/util/delay.h ****      the documentation and/or other materials provided with the
  15:/usr/local/CrossPack-AVR-20131216/avr/include/util/delay.h ****      distribution.
  16:/usr/local/CrossPack-AVR-20131216/avr/include/util/delay.h **** 
  17:/usr/local/CrossPack-AVR-20131216/avr/include/util/delay.h ****    * Neither the name of the copyright holders nor the names of
  18:/usr/local/CrossPack-AVR-20131216/avr/include/util/delay.h ****      contributors may be used to endorse or promote products derived
  19:/usr/local/CrossPack-AVR-20131216/avr/include/util/delay.h ****      from this software without specific prior written permission.
  20:/usr/local/CrossPack-AVR-20131216/avr/include/util/delay.h **** 
  21:/usr/local/CrossPack-AVR-20131216/avr/include/util/delay.h ****   THIS SOFTWARE IS PROVIDED BY THE COPYRIGHT HOLDERS AND CONTRIBUTORS "AS IS"
  22:/usr/local/CrossPack-AVR-20131216/avr/include/util/delay.h ****   AND ANY EXPRESS OR IMPLIED WARRANTIES, INCLUDING, BUT NOT LIMITED TO, THE
  23:/usr/local/CrossPack-AVR-20131216/avr/include/util/delay.h ****   IMPLIED WARRANTIES OF MERCHANTABILITY AND FITNESS FOR A PARTICULAR PURPOSE
  24:/usr/local/CrossPack-AVR-20131216/avr/include/util/delay.h ****   ARE DISCLAIMED. IN NO EVENT SHALL THE COPYRIGHT OWNER OR CONTRIBUTORS BE
  25:/usr/local/CrossPack-AVR-20131216/avr/include/util/delay.h ****   LIABLE FOR ANY DIRECT, INDIRECT, INCIDENTAL, SPECIAL, EXEMPLARY, OR
  26:/usr/local/CrossPack-AVR-20131216/avr/include/util/delay.h ****   CONSEQUENTIAL DAMAGES (INCLUDING, BUT NOT LIMITED TO, PROCUREMENT OF
  27:/usr/local/CrossPack-AVR-20131216/avr/include/util/delay.h ****   SUBSTITUTE GOODS OR SERVICES; LOSS OF USE, DATA, OR PROFITS; OR BUSINESS
  28:/usr/local/CrossPack-AVR-20131216/avr/include/util/delay.h ****   INTERRUPTION) HOWEVER CAUSED AND ON ANY THEORY OF LIABILITY, WHETHER IN
  29:/usr/local/CrossPack-AVR-20131216/avr/include/util/delay.h ****   CONTRACT, STRICT LIABILITY, OR TORT (INCLUDING NEGLIGENCE OR OTHERWISE)
  30:/usr/local/CrossPack-AVR-20131216/avr/include/util/delay.h ****   ARISING IN ANY WAY OUT OF THE USE OF THIS SOFTWARE, EVEN IF ADVISED OF THE
  31:/usr/local/CrossPack-AVR-20131216/avr/include/util/delay.h ****   POSSIBILITY OF SUCH DAMAGE. */
  32:/usr/local/CrossPack-AVR-20131216/avr/include/util/delay.h **** 
  33:/usr/local/CrossPack-AVR-20131216/avr/include/util/delay.h **** /* $Id$ */
  34:/usr/local/CrossPack-AVR-20131216/avr/include/util/delay.h **** 
  35:/usr/local/CrossPack-AVR-20131216/avr/include/util/delay.h **** #ifndef _UTIL_DELAY_H_
  36:/usr/local/CrossPack-AVR-20131216/avr/include/util/delay.h **** #define _UTIL_DELAY_H_ 1
  37:/usr/local/CrossPack-AVR-20131216/avr/include/util/delay.h **** 
  38:/usr/local/CrossPack-AVR-20131216/avr/include/util/delay.h **** #ifndef __HAS_DELAY_CYCLES
  39:/usr/local/CrossPack-AVR-20131216/avr/include/util/delay.h **** #define __HAS_DELAY_CYCLES 1
  40:/usr/local/CrossPack-AVR-20131216/avr/include/util/delay.h **** #endif
GAS LISTING /var/folders/86/8ymzt0g934z5dpmztl89nd000000gn/T//ccz0jCiT.s 			page 6


  41:/usr/local/CrossPack-AVR-20131216/avr/include/util/delay.h **** 
  42:/usr/local/CrossPack-AVR-20131216/avr/include/util/delay.h **** #include <inttypes.h>
  43:/usr/local/CrossPack-AVR-20131216/avr/include/util/delay.h **** #include <util/delay_basic.h>
  44:/usr/local/CrossPack-AVR-20131216/avr/include/util/delay.h **** #include <math.h>
  45:/usr/local/CrossPack-AVR-20131216/avr/include/util/delay.h **** 
  46:/usr/local/CrossPack-AVR-20131216/avr/include/util/delay.h **** /** \file */
  47:/usr/local/CrossPack-AVR-20131216/avr/include/util/delay.h **** /** \defgroup util_delay <util/delay.h>: Convenience functions for busy-wait delay loops
  48:/usr/local/CrossPack-AVR-20131216/avr/include/util/delay.h ****     \code
  49:/usr/local/CrossPack-AVR-20131216/avr/include/util/delay.h ****     #define F_CPU 1000000UL  // 1 MHz
  50:/usr/local/CrossPack-AVR-20131216/avr/include/util/delay.h ****     //#define F_CPU 14.7456E6
  51:/usr/local/CrossPack-AVR-20131216/avr/include/util/delay.h ****     #include <util/delay.h>
  52:/usr/local/CrossPack-AVR-20131216/avr/include/util/delay.h ****     \endcode
  53:/usr/local/CrossPack-AVR-20131216/avr/include/util/delay.h **** 
  54:/usr/local/CrossPack-AVR-20131216/avr/include/util/delay.h ****     \note As an alternative method, it is possible to pass the
  55:/usr/local/CrossPack-AVR-20131216/avr/include/util/delay.h ****     F_CPU macro down to the compiler from the Makefile.
  56:/usr/local/CrossPack-AVR-20131216/avr/include/util/delay.h ****     Obviously, in that case, no \c \#define statement should be
  57:/usr/local/CrossPack-AVR-20131216/avr/include/util/delay.h ****     used.
  58:/usr/local/CrossPack-AVR-20131216/avr/include/util/delay.h **** 
  59:/usr/local/CrossPack-AVR-20131216/avr/include/util/delay.h ****     The functions in this header file are wrappers around the basic
  60:/usr/local/CrossPack-AVR-20131216/avr/include/util/delay.h ****     busy-wait functions from <util/delay_basic.h>.  They are meant as
  61:/usr/local/CrossPack-AVR-20131216/avr/include/util/delay.h ****     convenience functions where actual time values can be specified
  62:/usr/local/CrossPack-AVR-20131216/avr/include/util/delay.h ****     rather than a number of cycles to wait for.  The idea behind is
  63:/usr/local/CrossPack-AVR-20131216/avr/include/util/delay.h ****     that compile-time constant expressions will be eliminated by
  64:/usr/local/CrossPack-AVR-20131216/avr/include/util/delay.h ****     compiler optimization so floating-point expressions can be used
  65:/usr/local/CrossPack-AVR-20131216/avr/include/util/delay.h ****     to calculate the number of delay cycles needed based on the CPU
  66:/usr/local/CrossPack-AVR-20131216/avr/include/util/delay.h ****     frequency passed by the macro F_CPU.
  67:/usr/local/CrossPack-AVR-20131216/avr/include/util/delay.h **** 
  68:/usr/local/CrossPack-AVR-20131216/avr/include/util/delay.h ****     \note In order for these functions to work as intended, compiler
  69:/usr/local/CrossPack-AVR-20131216/avr/include/util/delay.h ****     optimizations <em>must</em> be enabled, and the delay time
  70:/usr/local/CrossPack-AVR-20131216/avr/include/util/delay.h ****     <em>must</em> be an expression that is a known constant at
  71:/usr/local/CrossPack-AVR-20131216/avr/include/util/delay.h ****     compile-time.  If these requirements are not met, the resulting
  72:/usr/local/CrossPack-AVR-20131216/avr/include/util/delay.h ****     delay will be much longer (and basically unpredictable), and
  73:/usr/local/CrossPack-AVR-20131216/avr/include/util/delay.h ****     applications that otherwise do not use floating-point calculations
  74:/usr/local/CrossPack-AVR-20131216/avr/include/util/delay.h ****     will experience severe code bloat by the floating-point library
  75:/usr/local/CrossPack-AVR-20131216/avr/include/util/delay.h ****     routines linked into the application.
  76:/usr/local/CrossPack-AVR-20131216/avr/include/util/delay.h **** 
  77:/usr/local/CrossPack-AVR-20131216/avr/include/util/delay.h ****     The functions available allow the specification of microsecond, and
  78:/usr/local/CrossPack-AVR-20131216/avr/include/util/delay.h ****     millisecond delays directly, using the application-supplied macro
  79:/usr/local/CrossPack-AVR-20131216/avr/include/util/delay.h ****     F_CPU as the CPU clock frequency (in Hertz).
  80:/usr/local/CrossPack-AVR-20131216/avr/include/util/delay.h **** 
  81:/usr/local/CrossPack-AVR-20131216/avr/include/util/delay.h **** */
  82:/usr/local/CrossPack-AVR-20131216/avr/include/util/delay.h **** 
  83:/usr/local/CrossPack-AVR-20131216/avr/include/util/delay.h **** #if !defined(__DOXYGEN__)
  84:/usr/local/CrossPack-AVR-20131216/avr/include/util/delay.h **** static inline void _delay_us(double __us) __attribute__((always_inline));
  85:/usr/local/CrossPack-AVR-20131216/avr/include/util/delay.h **** static inline void _delay_ms(double __ms) __attribute__((always_inline));
  86:/usr/local/CrossPack-AVR-20131216/avr/include/util/delay.h **** #endif
  87:/usr/local/CrossPack-AVR-20131216/avr/include/util/delay.h **** 
  88:/usr/local/CrossPack-AVR-20131216/avr/include/util/delay.h **** #ifndef F_CPU
  89:/usr/local/CrossPack-AVR-20131216/avr/include/util/delay.h **** /* prevent compiler error by supplying a default */
  90:/usr/local/CrossPack-AVR-20131216/avr/include/util/delay.h **** # warning "F_CPU not defined for <util/delay.h>"
  91:/usr/local/CrossPack-AVR-20131216/avr/include/util/delay.h **** # define F_CPU 1000000UL
  92:/usr/local/CrossPack-AVR-20131216/avr/include/util/delay.h **** #endif
  93:/usr/local/CrossPack-AVR-20131216/avr/include/util/delay.h **** 
  94:/usr/local/CrossPack-AVR-20131216/avr/include/util/delay.h **** #ifndef __OPTIMIZE__
  95:/usr/local/CrossPack-AVR-20131216/avr/include/util/delay.h **** # warning "Compiler optimizations disabled; functions from <util/delay.h> won't work as designed"
  96:/usr/local/CrossPack-AVR-20131216/avr/include/util/delay.h **** #endif
  97:/usr/local/CrossPack-AVR-20131216/avr/include/util/delay.h **** 
GAS LISTING /var/folders/86/8ymzt0g934z5dpmztl89nd000000gn/T//ccz0jCiT.s 			page 7


  98:/usr/local/CrossPack-AVR-20131216/avr/include/util/delay.h **** #if __HAS_DELAY_CYCLES && defined(__OPTIMIZE__) && \
  99:/usr/local/CrossPack-AVR-20131216/avr/include/util/delay.h ****   !defined(__DELAY_BACKWARD_COMPATIBLE__) &&	   \
 100:/usr/local/CrossPack-AVR-20131216/avr/include/util/delay.h ****   __STDC_HOSTED__
 101:/usr/local/CrossPack-AVR-20131216/avr/include/util/delay.h **** #  include <math.h>
 102:/usr/local/CrossPack-AVR-20131216/avr/include/util/delay.h **** #endif
 103:/usr/local/CrossPack-AVR-20131216/avr/include/util/delay.h **** 
 104:/usr/local/CrossPack-AVR-20131216/avr/include/util/delay.h **** /**
 105:/usr/local/CrossPack-AVR-20131216/avr/include/util/delay.h ****    \ingroup util_delay
 106:/usr/local/CrossPack-AVR-20131216/avr/include/util/delay.h **** 
 107:/usr/local/CrossPack-AVR-20131216/avr/include/util/delay.h ****    Perform a delay of \c __ms milliseconds, using _delay_loop_2().
 108:/usr/local/CrossPack-AVR-20131216/avr/include/util/delay.h **** 
 109:/usr/local/CrossPack-AVR-20131216/avr/include/util/delay.h ****    The macro F_CPU is supposed to be defined to a
 110:/usr/local/CrossPack-AVR-20131216/avr/include/util/delay.h ****    constant defining the CPU clock frequency (in Hertz).
 111:/usr/local/CrossPack-AVR-20131216/avr/include/util/delay.h **** 
 112:/usr/local/CrossPack-AVR-20131216/avr/include/util/delay.h ****    The maximal possible delay is 262.14 ms / F_CPU in MHz.
 113:/usr/local/CrossPack-AVR-20131216/avr/include/util/delay.h **** 
 114:/usr/local/CrossPack-AVR-20131216/avr/include/util/delay.h ****    When the user request delay which exceed the maximum possible one,
 115:/usr/local/CrossPack-AVR-20131216/avr/include/util/delay.h ****    _delay_ms() provides a decreased resolution functionality. In this
 116:/usr/local/CrossPack-AVR-20131216/avr/include/util/delay.h ****    mode _delay_ms() will work with a resolution of 1/10 ms, providing
 117:/usr/local/CrossPack-AVR-20131216/avr/include/util/delay.h ****    delays up to 6.5535 seconds (independent from CPU frequency).  The
 118:/usr/local/CrossPack-AVR-20131216/avr/include/util/delay.h ****    user will not be informed about decreased resolution.
 119:/usr/local/CrossPack-AVR-20131216/avr/include/util/delay.h **** 
 120:/usr/local/CrossPack-AVR-20131216/avr/include/util/delay.h ****    If the avr-gcc toolchain has __builtin_avr_delay_cycles(unsigned long)
 121:/usr/local/CrossPack-AVR-20131216/avr/include/util/delay.h ****    support, maximal possible delay is 4294967.295 ms/ F_CPU in MHz. For
 122:/usr/local/CrossPack-AVR-20131216/avr/include/util/delay.h ****    values greater than the maximal possible delay, overflows results in
 123:/usr/local/CrossPack-AVR-20131216/avr/include/util/delay.h ****    no delay i.e., 0ms.
 124:/usr/local/CrossPack-AVR-20131216/avr/include/util/delay.h **** 
 125:/usr/local/CrossPack-AVR-20131216/avr/include/util/delay.h ****    Conversion of __us into clock cycles may not always result in integer.
 126:/usr/local/CrossPack-AVR-20131216/avr/include/util/delay.h ****    By default, the clock cycles rounded up to next integer. This ensures that
 127:/usr/local/CrossPack-AVR-20131216/avr/include/util/delay.h ****    the user gets atleast __us microseconds of delay.
 128:/usr/local/CrossPack-AVR-20131216/avr/include/util/delay.h **** 
 129:/usr/local/CrossPack-AVR-20131216/avr/include/util/delay.h ****    Alternatively, user can define __DELAY_ROUND_DOWN__ and __DELAY_ROUND_CLOSEST__
 130:/usr/local/CrossPack-AVR-20131216/avr/include/util/delay.h ****    to round down and round to closest integer.
 131:/usr/local/CrossPack-AVR-20131216/avr/include/util/delay.h **** 
 132:/usr/local/CrossPack-AVR-20131216/avr/include/util/delay.h ****    Note: The new implementation of _delay_ms(double __ms) with 
 133:/usr/local/CrossPack-AVR-20131216/avr/include/util/delay.h ****     __builtin_avr_delay_cycles(unsigned long) support is not backward compatible. 
 134:/usr/local/CrossPack-AVR-20131216/avr/include/util/delay.h ****    User can define __DELAY_BACKWARD_COMPATIBLE__ to get a backward compatible delay.
 135:/usr/local/CrossPack-AVR-20131216/avr/include/util/delay.h ****    Also, the backward compatible
 136:/usr/local/CrossPack-AVR-20131216/avr/include/util/delay.h ****    algorithm will be chosen if the code is compiled in a <em>freestanding
 137:/usr/local/CrossPack-AVR-20131216/avr/include/util/delay.h ****    environment</em> (GCC option \c -ffreestanding), as the math functions
 138:/usr/local/CrossPack-AVR-20131216/avr/include/util/delay.h ****    required for rounding are not available to the compiler then.
 139:/usr/local/CrossPack-AVR-20131216/avr/include/util/delay.h **** 
 140:/usr/local/CrossPack-AVR-20131216/avr/include/util/delay.h ****  */
 141:/usr/local/CrossPack-AVR-20131216/avr/include/util/delay.h **** void
 142:/usr/local/CrossPack-AVR-20131216/avr/include/util/delay.h **** _delay_ms(double __ms)
 143:/usr/local/CrossPack-AVR-20131216/avr/include/util/delay.h **** {
 144:/usr/local/CrossPack-AVR-20131216/avr/include/util/delay.h **** 	double __tmp ; 
 145:/usr/local/CrossPack-AVR-20131216/avr/include/util/delay.h **** #if __HAS_DELAY_CYCLES && defined(__OPTIMIZE__) && \
 146:/usr/local/CrossPack-AVR-20131216/avr/include/util/delay.h ****   !defined(__DELAY_BACKWARD_COMPATIBLE__) &&	   \
 147:/usr/local/CrossPack-AVR-20131216/avr/include/util/delay.h ****   __STDC_HOSTED__
 148:/usr/local/CrossPack-AVR-20131216/avr/include/util/delay.h **** 	uint32_t __ticks_dc;
 149:/usr/local/CrossPack-AVR-20131216/avr/include/util/delay.h **** 	extern void __builtin_avr_delay_cycles(unsigned long);
 150:/usr/local/CrossPack-AVR-20131216/avr/include/util/delay.h **** 	__tmp = ((F_CPU) / 1e3) * __ms;
 151:/usr/local/CrossPack-AVR-20131216/avr/include/util/delay.h **** 
 152:/usr/local/CrossPack-AVR-20131216/avr/include/util/delay.h **** 	#if defined(__DELAY_ROUND_DOWN__)
 153:/usr/local/CrossPack-AVR-20131216/avr/include/util/delay.h **** 		__ticks_dc = (uint32_t)fabs(__tmp);
 154:/usr/local/CrossPack-AVR-20131216/avr/include/util/delay.h **** 
GAS LISTING /var/folders/86/8ymzt0g934z5dpmztl89nd000000gn/T//ccz0jCiT.s 			page 8


 155:/usr/local/CrossPack-AVR-20131216/avr/include/util/delay.h **** 	#elif defined(__DELAY_ROUND_CLOSEST__)
 156:/usr/local/CrossPack-AVR-20131216/avr/include/util/delay.h **** 		__ticks_dc = (uint32_t)(fabs(__tmp)+0.5);
 157:/usr/local/CrossPack-AVR-20131216/avr/include/util/delay.h **** 
 158:/usr/local/CrossPack-AVR-20131216/avr/include/util/delay.h **** 	#else
 159:/usr/local/CrossPack-AVR-20131216/avr/include/util/delay.h **** 		//round up by default
 160:/usr/local/CrossPack-AVR-20131216/avr/include/util/delay.h **** 		__ticks_dc = (uint32_t)(ceil(fabs(__tmp)));
 161:/usr/local/CrossPack-AVR-20131216/avr/include/util/delay.h **** 	#endif
 162:/usr/local/CrossPack-AVR-20131216/avr/include/util/delay.h **** 
 163:/usr/local/CrossPack-AVR-20131216/avr/include/util/delay.h **** 	__builtin_avr_delay_cycles(__ticks_dc);
 169               		.loc 2 163 0 is_stmt 1
 170 007a EFEC      		ldi r30,lo8(1999)
 171 007c F7E0      		ldi r31,hi8(1999)
 172 007e 3197      		1: sbiw r30,1
 173 0080 01F4      		brne 1b
 174 0082 00C0      		rjmp .
 175 0084 0000      		nop
 176               	.LBE10:
 177               	.LBE9:
 178               		.loc 1 70 0
 179 0086 2F5F      		subi r18,-1
 180 0088 3F4F      		sbci r19,-1
 181               	.LVL13:
 182 008a 00C0      		rjmp .L17
 183               	.LVL14:
 184               	.L19:
 185               	/* epilogue start */
 186               	.LBE8:
  71:customprocs.cpp **** 		_delay_ms(1.0);
  72:customprocs.cpp **** 	}
  73:customprocs.cpp **** }
 187               		.loc 1 73 0
 188 008c 0895      		ret
 189               		.cfi_endproc
 190               	.LFE8:
 191               		.size	_Z10cp_wait_msj, .-_Z10cp_wait_msj
 192               	.Letext0:
 193               		.file 3 "/usr/local/CrossPack-AVR-20131216/avr/include/stdint.h"