GAS LISTING /var/folders/86/8ymzt0g934z5dpmztl89nd000000gn/T//ccz0jCiT.s 			page 1


   1               		.file	"customprocs.cpp"
   2               	__SP_H__ = 0x3e
   3               	__SP_L__ = 0x3d
   4               	__SREG__ = 0x3f
   5               	__tmp_reg__ = 0
   6               	__zero_reg__ = 1
   7               		.text
   8               	.Ltext0:
   9               		.cfi_sections	.debug_frame
  10               	.global	_Z9cp_strlenPKc
  11               		.type	_Z9cp_strlenPKc, @function
  12               	_Z9cp_strlenPKc:
  13               	.LFB6:
  14               		.file 1 "customprocs.cpp"
   1:customprocs.cpp **** /*
   2:customprocs.cpp **** Custom procedures, mainly related to character arrays.
   3:customprocs.cpp **** Copyright (C) 2009  Philippe Proulx (philippe.proulx@polymtl.ca)
   4:customprocs.cpp **** 
   5:customprocs.cpp **** This program is free software: you can redistribute it and/or modify
   6:customprocs.cpp **** it under the terms of the GNU Lesser General Public License as published by
   7:customprocs.cpp **** the Free Software Foundation, either version 3 of the License, or
   8:customprocs.cpp **** (at your option) any later version.
   9:customprocs.cpp **** 
  10:customprocs.cpp **** This program is distributed in the hope that it will be useful,
  11:customprocs.cpp **** but WITHOUT ANY WARRANTY; without even the implied warranty of
  12:customprocs.cpp **** MERCHANTABILITY or FITNESS FOR A PARTICULAR PURPOSE.  See the
  13:customprocs.cpp **** GNU Lesser General Public License for more details.
  14:customprocs.cpp **** 
  15:customprocs.cpp **** You should have received a copy of the GNU Lesser General Public License
  16:customprocs.cpp **** along with this program.  If not, see <http://www.gnu.org/licenses/>.
  17:customprocs.cpp **** */
  18:customprocs.cpp **** 
  19:customprocs.cpp **** #include <avr/io.h>
  20:customprocs.cpp **** #include <util/delay.h>
  21:customprocs.cpp **** 
  22:customprocs.cpp **** #include "customprocs.h"
  23:customprocs.cpp **** 
  24:customprocs.cpp **** /**
  25:customprocs.cpp ****  * Longueur d'une chaîne ASCIIZ.
  26:customprocs.cpp ****  *
  27:customprocs.cpp ****  * @param str	Chaîne ASCIIZ
  28:customprocs.cpp ****  * @return	Longueur de la chaîne
  29:customprocs.cpp ****  */
  30:customprocs.cpp **** uint16_t cp_strlen(const char* str) {
  15               		.loc 1 30 0
  16               		.cfi_startproc
  17               	.LVL0:
  18               	/* prologue: function */
  19               	/* frame size = 0 */
  20               	/* stack size = 0 */
  21               	.L__stack_usage = 0
  22 0000 FC01      		movw r30,r24
  23 0002 3196      		adiw r30,1
  24               	.LVL1:
  25               	.L3:
  26 0004 9F01      		movw r18,r30
  27 0006 281B      		sub r18,r24
GAS LISTING /var/folders/86/8ymzt0g934z5dpmztl89nd000000gn/T//ccz0jCiT.s 			page 2


  28 0008 390B      		sbc r19,r25
  29               	.LVL2:
  30               	.LBB6:
  31:customprocs.cpp **** 	uint16_t i = '\0';
  32:customprocs.cpp **** 
  33:customprocs.cpp **** 	while (str[++i] != '\0');
  31               		.loc 1 33 0 discriminator 1
  32 000a 4191      		ld r20,Z+
  33 000c 4111      		cpse r20,__zero_reg__
  34 000e 00C0      		rjmp .L3
  35               	.LBE6:
  34:customprocs.cpp **** 
  35:customprocs.cpp **** 	return i;
  36:customprocs.cpp **** }
  36               		.loc 1 36 0
  37 0010 C901      		movw r24,r18
  38               	.LVL3:
  39 0012 0895      		ret
  40               		.cfi_endproc
  41               	.LFE6:
  42               		.size	_Z9cp_strlenPKc, .-_Z9cp_strlenPKc
  43               		.section	.rodata.str1.1,"aMS",@progbits,1
  44               	.LC0:
  45 0000 3031 3233 		.string	"0123456789abcdef"
  45      3435 3637 
  45      3839 6162 
  45      6364 6566 
  45      00
  46               		.text
  47               	.global	_Z7cp_itoaPcjh
  48               		.type	_Z7cp_itoaPcjh, @function
  49               	_Z7cp_itoaPcjh:
  50               	.LFB7:
  37:customprocs.cpp **** 
  38:customprocs.cpp **** /**
  39:customprocs.cpp ****  * Réimplémentation d'un `itoa'.
  40:customprocs.cpp ****  *
  41:customprocs.cpp ****  * @param buf16		Buffer de 16 B à fournir
  42:customprocs.cpp ****  * @param val		Valeur NON signée à convertir
  43:customprocs.cpp ****  * @param base		Base de conversion (2 à 16)
  44:customprocs.cpp ****  * @return		Adresse de la chaîne obtenue
  45:customprocs.cpp ****  */
  46:customprocs.cpp **** char* cp_itoa(char* buf16, uint16_t val, const uint8_t base) {
  51               		.loc 1 46 0
  52               		.cfi_startproc
  53               	.LVL4:
  54 0014 FF92      		push r15
  55               	.LCFI0:
  56               		.cfi_def_cfa_offset 3
  57               		.cfi_offset 15, -2
  58 0016 0F93      		push r16
  59               	.LCFI1:
  60               		.cfi_def_cfa_offset 4
  61               		.cfi_offset 16, -3
  62 0018 1F93      		push r17
  63               	.LCFI2:
  64               		.cfi_def_cfa_offset 5
GAS LISTING /var/folders/86/8ymzt0g934z5dpmztl89nd000000gn/T//ccz0jCiT.s 			page 3


  65               		.cfi_offset 17, -4
  66 001a CF93      		push r28
  67               	.LCFI3:
  68               		.cfi_def_cfa_offset 6
  69               		.cfi_offset 28, -5
  70 001c DF93      		push r29
  71               	.LCFI4:
  72               		.cfi_def_cfa_offset 7
  73               		.cfi_offset 29, -6
  74               	/* prologue: function */
  75               	/* frame size = 0 */
  76               	/* stack size = 5 */
  77               	.L__stack_usage = 5
  78 001e FC01      		movw r30,r24
  79 0020 CB01      		movw r24,r22
  80               	.LVL5:
  81               	.LBB7:
  47:customprocs.cpp **** 	uint8_t i = 14;
  48:customprocs.cpp **** 	buf16[i + 1] = 0;
  82               		.loc 1 48 0
  83 0022 1786      		std Z+15,__zero_reg__
  49:customprocs.cpp **** 
  50:customprocs.cpp **** 	if (val == 0) {
  84               		.loc 1 50 0
  85 0024 0097      		sbiw r24,0
  86 0026 01F4      		brne .L6
  51:customprocs.cpp **** 		buf16[i] = '0';
  87               		.loc 1 51 0
  88 0028 80E3      		ldi r24,lo8(48)
  89 002a 8687      		std Z+14,r24
  52:customprocs.cpp **** 		return &buf16[i];
  90               		.loc 1 52 0
  91 002c CF01      		movw r24,r30
  92 002e 0E96      		adiw r24,14
  93 0030 00C0      		rjmp .L7
  94               	.L6:
  95 0032 EF01      		movw r28,r30
  96 0034 2F96      		adiw r28,15
  50:customprocs.cpp **** 	if (val == 0) {
  97               		.loc 1 50 0
  98 0036 2EE0      		ldi r18,lo8(14)
  99 0038 F22E      		mov r15,r18
  53:customprocs.cpp **** 	}
  54:customprocs.cpp **** 
  55:customprocs.cpp **** 	for(; val && i; --i, val /= base) {
  56:customprocs.cpp **** 		buf16[i] = CP_HEX_CHARLIST[val % base];
 100               		.loc 1 56 0
 101 003a 042F      		mov r16,r20
 102 003c 10E0      		ldi r17,0
 103               	.LVL6:
 104               	.L9:
 105               		.loc 1 56 0 is_stmt 0 discriminator 1
 106 003e B801      		movw r22,r16
 107 0040 0E94 0000 		call __udivmodhi4
 108               	.LVL7:
 109 0044 DC01      		movw r26,r24
 110 0046 A050      		subi r26,lo8(-(.LC0))
GAS LISTING /var/folders/86/8ymzt0g934z5dpmztl89nd000000gn/T//ccz0jCiT.s 			page 4


 111 0048 B040      		sbci r27,hi8(-(.LC0))
 112 004a 8C91      		ld r24,X
 113 004c 8A93      		st -Y,r24
  55:customprocs.cpp **** 	for(; val && i; --i, val /= base) {
 114               		.loc 1 55 0 is_stmt 1 discriminator 1
 115 004e FA94      		dec r15
 116               	.LVL8:
 117 0050 CB01      		movw r24,r22
 118 0052 0097      		sbiw r24,0
 119 0054 01F0      		breq .L8
  55:customprocs.cpp **** 	for(; val && i; --i, val /= base) {
 120               		.loc 1 55 0 is_stmt 0 discriminator 2
 121 0056 F110      		cpse r15,__zero_reg__
 122 0058 00C0      		rjmp .L9
 123               	.L8:
  57:customprocs.cpp **** 	}
  58:customprocs.cpp **** 
  59:customprocs.cpp **** 	return &buf16[i + 1];
 124               		.loc 1 59 0 is_stmt 1
 125 005a 8F2D      		mov r24,r15
 126 005c 90E0      		ldi r25,0
 127 005e 0196      		adiw r24,1
 128 0060 8E0F      		add r24,r30
 129 0062 9F1F      		adc r25,r31
 130               	.LVL9:
 131               	.L7:
 132               	/* epilogue start */
 133               	.LBE7:
  60:customprocs.cpp **** }
 134               		.loc 1 60 0
 135 0064 DF91      		pop r29
 136 0066 CF91      		pop r28
 137 0068 1F91      		pop r17
 138 006a 0F91      		pop r16
 139 006c FF90      		pop r15
 140 006e 0895      		ret
 141               		.cfi_endproc
 142               	.LFE7:
 143               		.size	_Z7cp_itoaPcjh, .-_Z7cp_itoaPcjh
 144               	.global	_Z10cp_wait_msj
 145               		.type	_Z10cp_wait_msj, @function
 146               	_Z10cp_wait_msj:
 147               	.LFB8:
  61:customprocs.cpp **** 
  62:customprocs.cpp **** /**
  63:customprocs.cpp ****  * Attend un nombre de millisecondes.
  64:customprocs.cpp ****  *
  65:customprocs.cpp ****  * @param ms	Nombre de millisecondes à attendre.
  66:customprocs.cpp ****  */
  67:customprocs.cpp **** void cp_wait_ms(const uint16_t ms) {
 148               		.loc 1 67 0
 149               		.cfi_startproc
 150               	.LVL10:
 151               	/* prologue: function */
 152               	/* frame size = 0 */
 153               	/* stack size = 0 */
 154               	.L__stack_usage = 0
GAS LISTING /var/folders/86/8ymzt0g934z5dpmztl89nd000000gn/T//ccz0jCiT.s 			page 5


 155               	.LBB8:
  68:customprocs.cpp **** 	uint16_t i;
  69:customprocs.cpp **** 
  70:customprocs.cpp **** 	for (i = 0; i < ms; ++i) {
 156               		.loc 1 70 0
 157 0070 20E0      		ldi r18,0
 158 0072 30E0      		ldi r19,0
 159               	.LVL11:
 160               	.L17:
 161               		.loc 1 70 0 is_stmt 0 discriminator 1
 162 0074 2817      		cp r18,r24
 163 0076 3907      		cpc r19,r25
 164 0078 01F0      		breq .L19
 165               	.LVL12:
 166               	.LBB9:
 167               	.LBB10:
 168               		.file 2 "/usr/local/CrossPack-AVR-20131216/avr/include/util/delay.h"
   1:/usr/local/CrossPack-AVR-20131216/avr/include/util/delay.h **** /* Copyright (c) 2002, Marek Michalkiewicz
   2:/usr/local/CrossPack-AVR-20131216/avr/include/util/delay.h ****    Copyright (c) 2004,2005,2007 Joerg Wunsch
   3:/usr/local/CrossPack-AVR-20131216/avr/include/util/delay.h ****    Copyright (c) 2007  Florin-Viorel Petrov
   4:/usr/local/CrossPack-AVR-20131216/avr/include/util/delay.h ****    All rights reserved.
   5:/usr/local/CrossPack-AVR-20131216/avr/include/util/delay.h **** 
   6:/usr/local/CrossPack-AVR-20131216/avr/include/util/delay.h ****    Redistribution and use in source and binary forms, with or without
   7:/usr/local/CrossPack-AVR-20131216/avr/include/util/delay.h ****    modification, are permitted provided that the following conditions are met:
   8:/usr/local/CrossPack-AVR-20131216/avr/include/util/delay.h **** 
   9:/usr/local/CrossPack-AVR-20131216/avr/include/util/delay.h ****    * Redistributions of source code must retain the above copyright
  10:/usr/local/CrossPack-AVR-20131216/avr/include/util/delay.h ****      notice, this list of conditions and the following disclaimer.
  11:/usr/local/CrossPack-AVR-20131216/avr/include/util/delay.h **** 
  12:/usr/local/CrossPack-AVR-20131216/avr/include/util/delay.h ****    * Redistributions in binary form must reproduce the above copyright
  13:/usr/local/CrossPack-AVR-20131216/avr/include/util/delay.h ****      notice, this list of conditions and the following disclaimer in
  14:/usr/local/CrossPack-AVR-20131216/avr/include/util/delay.h ****      the documentation and/or other materials provided with the
  15:/usr/local/CrossPack-AVR-20131216/avr/include/util/delay.h ****      distribution.
  16:/usr/local/CrossPack-AVR-20131216/avr/include/util/delay.h **** 
  17:/usr/local/CrossPack-AVR-20131216/avr/include/util/delay.h ****    * Neither the name of the copyright holders nor the names of
  18:/usr/local/CrossPack-AVR-20131216/avr/include/util/delay.h ****      contributors may be used to endorse or promote products derived
  19:/usr/local/CrossPack-AVR-20131216/avr/include/util/delay.h ****      from this software without specific prior written permission.
  20:/usr/local/CrossPack-AVR-20131216/avr/include/util/delay.h **** 
  21:/usr/local/CrossPack-AVR-20131216/avr/include/util/delay.h ****   THIS SOFTWARE IS PROVIDED BY THE COPYRIGHT HOLDERS AND CONTRIBUTORS "AS IS"
  22:/usr/local/CrossPack-AVR-20131216/avr/include/util/delay.h ****   AND ANY EXPRESS OR IMPLIED WARRANTIES, INCLUDING, BUT NOT LIMITED TO, THE
  23:/usr/local/CrossPack-AVR-20131216/avr/include/util/delay.h ****   IMPLIED WARRANTIES OF MERCHANTABILITY AND FITNESS FOR A PARTICULAR PURPOSE
  24:/usr/local/CrossPack-AVR-20131216/avr/include/util/delay.h ****   ARE DISCLAIMED. IN NO EVENT SHALL THE COPYRIGHT OWNER OR CONTRIBUTORS BE
  25:/usr/local/CrossPack-AVR-20131216/avr/include/util/delay.h ****   LIABLE FOR ANY DIRECT, INDIRECT, INCIDENTAL, SPECIAL, EXEMPLARY, OR
  26:/usr/local/CrossPack-AVR-20131216/avr/include/util/delay.h ****   CONSEQUENTIAL DAMAGES (INCLUDING, BUT NOT LIMITED TO, PROCUREMENT OF
  27:/usr/local/CrossPack-AVR-20131216/avr/include/util/delay.h ****   SUBSTITUTE GOODS OR SERVICES; LOSS OF USE, DATA, OR PROFITS; OR BUSINESS
  28:/usr/local/CrossPack-AVR-20131216/avr/include/util/delay.h ****   INTERRUPTION) HOWEVER CAUSED AND ON ANY THEORY OF LIABILITY, WHETHER IN
  29:/usr/local/CrossPack-AVR-20131216/avr/include/util/delay.h ****   CONTRACT, STRICT LIABILITY, OR TORT (INCLUDING NEGLIGENCE OR OTHERWISE)
  30:/usr/local/CrossPack-AVR-20131216/avr/include/util/delay.h ****   ARISING IN ANY WAY OUT OF THE USE OF THIS SOFTWARE, EVEN IF ADVISED OF THE
  31:/usr/local/CrossPack-AVR-20131216/avr/include/util/delay.h ****   POSSIBILITY OF SUCH DAMAGE. */
  32:/usr/local/CrossPack-AVR-20131216/avr/include/util/delay.h **** 
  33:/usr/local/CrossPack-AVR-20131216/avr/include/util/delay.h **** /* $Id$ */
  34:/usr/local/CrossPack-AVR-20131216/avr/include/util/delay.h **** 
  35:/usr/local/CrossPack-AVR-20131216/avr/include/util/delay.h **** #ifndef _UTIL_DELAY_H_
  36:/usr/local/CrossPack-AVR-20131216/avr/include/util/delay.h **** #define _UTIL_DELAY_H_ 1
  37:/usr/local/CrossPack-AVR-20131216/avr/include/util/delay.h **** 
  38:/usr/local/CrossPack-AVR-20131216/avr/include/util/delay.h **** #ifndef __HAS_DELAY_CYCLES
  39:/usr/local/CrossPack-AVR-20131216/avr/include/util/delay.h **** #define __HAS_DELAY_CYCLES 1
  40:/usr/local/CrossPack-AVR-20131216/avr/include/util/delay.h **** #endif
GAS LISTING /var/folders/86/8ymzt0g934z5dpmztl89nd000000gn/T//ccz0jCiT.s 			page 6


  41:/usr/local/CrossPack-AVR-20131216/avr/include/util/delay.h **** 
  42:/usr/local/CrossPack-AVR-20131216/avr/include/util/delay.h **** #include <inttypes.h>
  43:/usr/local/CrossPack-AVR-20131216/avr/include/util/delay.h **** #include <util/delay_basic.h>
  44:/usr/local/CrossPack-AVR-20131216/avr/include/util/delay.h **** #include <math.h>
  45:/usr/local/CrossPack-AVR-20131216/avr/include/util/delay.h **** 
  46:/usr/local/CrossPack-AVR-20131216/avr/include/util/delay.h **** /** \file */
  47:/usr/local/CrossPack-AVR-20131216/avr/include/util/delay.h **** /** \defgroup util_delay <util/delay.h>: Convenience functions for busy-wait delay loops
  48:/usr/local/CrossPack-AVR-20131216/avr/include/util/delay.h ****     \code
  49:/usr/local/CrossPack-AVR-20131216/avr/include/util/delay.h ****     #define F_CPU 1000000UL  // 1 MHz
  50:/usr/local/CrossPack-AVR-20131216/avr/include/util/delay.h ****     //#define F_CPU 14.7456E6
  51:/usr/local/CrossPack-AVR-20131216/avr/include/util/delay.h ****     #include <util/delay.h>
  52:/usr/local/CrossPack-AVR-20131216/avr/include/util/delay.h ****     \endcode
  53:/usr/local/CrossPack-AVR-20131216/avr/include/util/delay.h **** 
  54:/usr/local/CrossPack-AVR-20131216/avr/include/util/delay.h ****     \note As an alternative method, it is possible to pass the
  55:/usr/local/CrossPack-AVR-20131216/avr/include/util/delay.h ****     F_CPU macro down to the compiler from the Makefile.
  56:/usr/local/CrossPack-AVR-20131216/avr/include/util/delay.h ****     Obviously, in that case, no \c \#define statement should be
  57:/usr/local/CrossPack-AVR-20131216/avr/include/util/delay.h ****     used.
  58:/usr/local/CrossPack-AVR-20131216/avr/include/util/delay.h **** 
  59:/usr/local/CrossPack-AVR-20131216/avr/include/util/delay.h ****     The functions in this header file are wrappers around the basic
  60:/usr/local/CrossPack-AVR-20131216/avr/include/util/delay.h ****     busy-wait functions from <util/delay_basic.h>.  They are meant as
  61:/usr/local/CrossPack-AVR-20131216/avr/include/util/delay.h ****     convenience functions where actual time values can be specified
  62:/usr/local/CrossPack-AVR-20131216/avr/include/util/delay.h ****     rather than a number of cycles to wait for.  The idea behind is
  63:/usr/local/CrossPack-AVR-20131216/avr/include/util/delay.h ****     that compile-time constant expressions will be eliminated by
  64:/usr/local/CrossPack-AVR-20131216/avr/include/util/delay.h ****     compiler optimization so floating-point expressions can be used
  65:/usr/local/CrossPack-AVR-20131216/avr/include/util/delay.h ****     to calculate the number of delay cycles needed based on the CPU
  66:/usr/local/CrossPack-AVR-20131216/avr/include/util/delay.h ****     frequency passed by the macro F_CPU.
  67:/usr/local/CrossPack-AVR-20131216/avr/include/util/delay.h **** 
  68:/usr/local/CrossPack-AVR-20131216/avr/include/util/delay.h ****     \note In order for these functions to work as intended, compiler
  69:/usr/local/CrossPack-AVR-20131216/avr/include/util/delay.h ****     optimizations <em>must</em> be enabled, and the delay time
  70:/usr/local/CrossPack-AVR-20131216/avr/include/util/delay.h ****     <em>must</em> be an expression that is a known constant at
  71:/usr/local/CrossPack-AVR-20131216/avr/include/util/delay.h ****     compile-time.  If these requirements are not met, the resulting
  72:/usr/local/CrossPack-AVR-20131216/avr/include/util/delay.h ****     delay will be much longer (and basically unpredictable), and
  73:/usr/local/CrossPack-AVR-20131216/avr/include/util/delay.h ****     applications that otherwise do not use floating-point calculations
  74:/usr/local/CrossPack-AVR-20131216/avr/include/util/delay.h ****     will experience severe code bloat by the floating-point library
  75:/usr/local/CrossPack-AVR-20131216/avr/include/util/delay.h ****     routines linked into the application.
  76:/usr/local/CrossPack-AVR-20131216/avr/include/util/delay.h **** 
  77:/usr/local/CrossPack-AVR-20131216/avr/include/util/delay.h ****     The functions available allow the specification of microsecond, and
  78:/usr/local/CrossPack-AVR-20131216/avr/include/util/delay.h ****     millisecond delays directly, using the application-supplied macro
  79:/usr/local/CrossPack-AVR-20131216/avr/include/util/delay.h ****     F_CPU as the CPU clock frequency (in Hertz).
  80:/usr/local/CrossPack-AVR-20131216/avr/include/util/delay.h **** 
  81:/usr/local/CrossPack-AVR-20131216/avr/include/util/delay.h **** */
  82:/usr/local/CrossPack-AVR-20131216/avr/include/util/delay.h **** 
  83:/usr/local/CrossPack-AVR-20131216/avr/include/util/delay.h **** #if !defined(__DOXYGEN__)
  84:/usr/local/CrossPack-AVR-20131216/avr/include/util/delay.h **** static inline void _delay_us(double __us) __attribute__((always_inline));
  85:/usr/local/CrossPack-AVR-20131216/avr/include/util/delay.h **** static inline void _delay_ms(double __ms) __attribute__((always_inline));
  86:/usr/local/CrossPack-AVR-20131216/avr/include/util/delay.h **** #endif
  87:/usr/local/CrossPack-AVR-20131216/avr/include/util/delay.h **** 
  88:/usr/local/CrossPack-AVR-20131216/avr/include/util/delay.h **** #ifndef F_CPU
  89:/usr/local/CrossPack-AVR-20131216/avr/include/util/delay.h **** /* prevent compiler error by supplying a default */
  90:/usr/local/CrossPack-AVR-20131216/avr/include/util/delay.h **** # warning "F_CPU not defined for <util/delay.h>"
  91:/usr/local/CrossPack-AVR-20131216/avr/include/util/delay.h **** # define F_CPU 1000000UL
  92:/usr/local/CrossPack-AVR-20131216/avr/include/util/delay.h **** #endif
  93:/usr/local/CrossPack-AVR-20131216/avr/include/util/delay.h **** 
  94:/usr/local/CrossPack-AVR-20131216/avr/include/util/delay.h **** #ifndef __OPTIMIZE__
  95:/usr/local/CrossPack-AVR-20131216/avr/include/util/delay.h **** # warning "Compiler optimizations disabled; functions from <util/delay.h> won't work as designed"
  96:/usr/local/CrossPack-AVR-20131216/avr/include/util/delay.h **** #endif
  97:/usr/local/CrossPack-AVR-20131216/avr/include/util/delay.h **** 
GAS LISTING /var/folders/86/8ymzt0g934z5dpmztl89nd000000gn/T//ccz0jCiT.s 			page 7


  98:/usr/local/CrossPack-AVR-20131216/avr/include/util/delay.h **** #if __HAS_DELAY_CYCLES && defined(__OPTIMIZE__) && \
  99:/usr/local/CrossPack-AVR-20131216/avr/include/util/delay.h ****   !defined(__DELAY_BACKWARD_COMPATIBLE__) &&	   \
 100:/usr/local/CrossPack-AVR-20131216/avr/include/util/delay.h ****   __STDC_HOSTED__
 101:/usr/local/CrossPack-AVR-20131216/avr/include/util/delay.h **** #  include <math.h>
 102:/usr/local/CrossPack-AVR-20131216/avr/include/util/delay.h **** #endif
 103:/usr/local/CrossPack-AVR-20131216/avr/include/util/delay.h **** 
 104:/usr/local/CrossPack-AVR-20131216/avr/include/util/delay.h **** /**
 105:/usr/local/CrossPack-AVR-20131216/avr/include/util/delay.h ****    \ingroup util_delay
 106:/usr/local/CrossPack-AVR-20131216/avr/include/util/delay.h **** 
 107:/usr/local/CrossPack-AVR-20131216/avr/include/util/delay.h ****    Perform a delay of \c __ms milliseconds, using _delay_loop_2().
 108:/usr/local/CrossPack-AVR-20131216/avr/include/util/delay.h **** 
 109:/usr/local/CrossPack-AVR-20131216/avr/include/util/delay.h ****    The macro F_CPU is supposed to be defined to a
 110:/usr/local/CrossPack-AVR-20131216/avr/include/util/delay.h ****    constant defining the CPU clock frequency (in Hertz).
 111:/usr/local/CrossPack-AVR-20131216/avr/include/util/delay.h **** 
 112:/usr/local/CrossPack-AVR-20131216/avr/include/util/delay.h ****    The maximal possible delay is 262.14 ms / F_CPU in MHz.
 113:/usr/local/CrossPack-AVR-20131216/avr/include/util/delay.h **** 
 114:/usr/local/CrossPack-AVR-20131216/avr/include/util/delay.h ****    When the user request delay which exceed the maximum possible one,
 115:/usr/local/CrossPack-AVR-20131216/avr/include/util/delay.h ****    _delay_ms() provides a decreased resolution functionality. In this
 116:/usr/local/CrossPack-AVR-20131216/avr/include/util/delay.h ****    mode _delay_ms() will work with a resolution of 1/10 ms, providing
 117:/usr/local/CrossPack-AVR-20131216/avr/include/util/delay.h ****    delays up to 6.5535 seconds (independent from CPU frequency).  The
 118:/usr/local/CrossPack-AVR-20131216/avr/include/util/delay.h ****    user will not be informed about decreased resolution.
 119:/usr/local/CrossPack-AVR-20131216/avr/include/util/delay.h **** 
 120:/usr/local/CrossPack-AVR-20131216/avr/include/util/delay.h ****    If the avr-gcc toolchain has __builtin_avr_delay_cycles(unsigned long)
 121:/usr/local/CrossPack-AVR-20131216/avr/include/util/delay.h ****    support, maximal possible delay is 4294967.295 ms/ F_CPU in MHz. For
 122:/usr/local/CrossPack-AVR-20131216/avr/include/util/delay.h ****    values greater than the maximal possible delay, overflows results in
 123:/usr/local/CrossPack-AVR-20131216/avr/include/util/delay.h ****    no delay i.e., 0ms.
 124:/usr/local/CrossPack-AVR-20131216/avr/include/util/delay.h **** 
 125:/usr/local/CrossPack-AVR-20131216/avr/include/util/delay.h ****    Conversion of __us into clock cycles may not always result in integer.
 126:/usr/local/CrossPack-AVR-20131216/avr/include/util/delay.h ****    By default, the clock cycles rounded up to next integer. This ensures that
 127:/usr/local/CrossPack-AVR-20131216/avr/include/util/delay.h ****    the user gets atleast __us microseconds of delay.
 128:/usr/local/CrossPack-AVR-20131216/avr/include/util/delay.h **** 
 129:/usr/local/CrossPack-AVR-20131216/avr/include/util/delay.h ****    Alternatively, user can define __DELAY_ROUND_DOWN__ and __DELAY_ROUND_CLOSEST__
 130:/usr/local/CrossPack-AVR-20131216/avr/include/util/delay.h ****    to round down and round to closest integer.
 131:/usr/local/CrossPack-AVR-20131216/avr/include/util/delay.h **** 
 132:/usr/local/CrossPack-AVR-20131216/avr/include/util/delay.h ****    Note: The new implementation of _delay_ms(double __ms) with 
 133:/usr/local/CrossPack-AVR-20131216/avr/include/util/delay.h ****     __builtin_avr_delay_cycles(unsigned long) support is not backward compatible. 
 134:/usr/local/CrossPack-AVR-20131216/avr/include/util/delay.h ****    User can define __DELAY_BACKWARD_COMPATIBLE__ to get a backward compatible delay.
 135:/usr/local/CrossPack-AVR-20131216/avr/include/util/delay.h ****    Also, the backward compatible
 136:/usr/local/CrossPack-AVR-20131216/avr/include/util/delay.h ****    algorithm will be chosen if the code is compiled in a <em>freestanding
 137:/usr/local/CrossPack-AVR-20131216/avr/include/util/delay.h ****    environment</em> (GCC option \c -ffreestanding), as the math functions
 138:/usr/local/CrossPack-AVR-20131216/avr/include/util/delay.h ****    required for rounding are not available to the compiler then.
 139:/usr/local/CrossPack-AVR-20131216/avr/include/util/delay.h **** 
 140:/usr/local/CrossPack-AVR-20131216/avr/include/util/delay.h ****  */
 141:/usr/local/CrossPack-AVR-20131216/avr/include/util/delay.h **** void
 142:/usr/local/CrossPack-AVR-20131216/avr/include/util/delay.h **** _delay_ms(double __ms)
 143:/usr/local/CrossPack-AVR-20131216/avr/include/util/delay.h **** {
 144:/usr/local/CrossPack-AVR-20131216/avr/include/util/delay.h **** 	double __tmp ; 
 145:/usr/local/CrossPack-AVR-20131216/avr/include/util/delay.h **** #if __HAS_DELAY_CYCLES && defined(__OPTIMIZE__) && \
 146:/usr/local/CrossPack-AVR-20131216/avr/include/util/delay.h ****   !defined(__DELAY_BACKWARD_COMPATIBLE__) &&	   \
 147:/usr/local/CrossPack-AVR-20131216/avr/include/util/delay.h ****   __STDC_HOSTED__
 148:/usr/local/CrossPack-AVR-20131216/avr/include/util/delay.h **** 	uint32_t __ticks_dc;
 149:/usr/local/CrossPack-AVR-20131216/avr/include/util/delay.h **** 	extern void __builtin_avr_delay_cycles(unsigned long);
 150:/usr/local/CrossPack-AVR-20131216/avr/include/util/delay.h **** 	__tmp = ((F_CPU) / 1e3) * __ms;
 151:/usr/local/CrossPack-AVR-20131216/avr/include/util/delay.h **** 
 152:/usr/local/CrossPack-AVR-20131216/avr/include/util/delay.h **** 	#if defined(__DELAY_ROUND_DOWN__)
 153:/usr/local/CrossPack-AVR-20131216/avr/include/util/delay.h **** 		__ticks_dc = (uint32_t)fabs(__tmp);
 154:/usr/local/CrossPack-AVR-20131216/avr/include/util/delay.h **** 
GAS LISTING /var/folders/86/8ymzt0g934z5dpmztl89nd000000gn/T//ccz0jCiT.s 			page 8


 155:/usr/local/CrossPack-AVR-20131216/avr/include/util/delay.h **** 	#elif defined(__DELAY_ROUND_CLOSEST__)
 156:/usr/local/CrossPack-AVR-20131216/avr/include/util/delay.h **** 		__ticks_dc = (uint32_t)(fabs(__tmp)+0.5);
 157:/usr/local/CrossPack-AVR-20131216/avr/include/util/delay.h **** 
 158:/usr/local/CrossPack-AVR-20131216/avr/include/util/delay.h **** 	#else
 159:/usr/local/CrossPack-AVR-20131216/avr/include/util/delay.h **** 		//round up by default
 160:/usr/local/CrossPack-AVR-20131216/avr/include/util/delay.h **** 		__ticks_dc = (uint32_t)(ceil(fabs(__tmp)));
 161:/usr/local/CrossPack-AVR-20131216/avr/include/util/delay.h **** 	#endif
 162:/usr/local/CrossPack-AVR-20131216/avr/include/util/delay.h **** 
 163:/usr/local/CrossPack-AVR-20131216/avr/include/util/delay.h **** 	__builtin_avr_delay_cycles(__ticks_dc);
 169               		.loc 2 163 0 is_stmt 1
 170 007a EFEC      		ldi r30,lo8(1999)
 171 007c F7E0      		ldi r31,hi8(1999)
 172 007e 3197      		1: sbiw r30,1
 173 0080 01F4      		brne 1b
 174 0082 00C0      		rjmp .
 175 0084 0000      		nop
 176               	.LBE10:
 177               	.LBE9:
 178               		.loc 1 70 0
 179 0086 2F5F      		subi r18,-1
 180 0088 3F4F      		sbci r19,-1
 181               	.LVL13:
 182 008a 00C0      		rjmp .L17
 183               	.LVL14:
 184               	.L19:
 185               	/* epilogue start */
 186               	.LBE8:
  71:customprocs.cpp **** 		_delay_ms(1.0);
  72:customprocs.cpp **** 	}
  73:customprocs.cpp **** }
 187               		.loc 1 73 0
 188 008c 0895      		ret
 189               		.cfi_endproc
 190               	.LFE8:
 191               		.size	_Z10cp_wait_msj, .-_Z10cp_wait_msj
 192               	.Letext0:
 193               		.file 3 "/usr/local/CrossPack-AVR-20131216/avr/include/stdint.h"
 194               		.section	.debug_info,"",@progbits
 195               	.Ldebug_info0:
 196 0000 1802 0000 		.long	0x218
 197 0004 0200      		.word	0x2
 198 0006 0000 0000 		.long	.Ldebug_abbrev0
 199 000a 04        		.byte	0x4
 200 000b 01        		.uleb128 0x1
 201 000c 0000 0000 		.long	.LASF20
 202 0010 04        		.byte	0x4
 203 0011 0000 0000 		.long	.LASF21
 204 0015 0000 0000 		.long	.LASF22
 205 0019 0000 0000 		.long	.Ltext0
 206 001d 0000 0000 		.long	.Letext0
 207 0021 0000 0000 		.long	.Ldebug_line0
 208 0025 02        		.uleb128 0x2
 209 0026 01        		.byte	0x1
 210 0027 06        		.byte	0x6
 211 0028 0000 0000 		.long	.LASF0
 212 002c 03        		.uleb128 0x3
 213 002d 0000 0000 		.long	.LASF2
GAS LISTING /var/folders/86/8ymzt0g934z5dpmztl89nd000000gn/T//ccz0jCiT.s 			page 9


 214 0031 03        		.byte	0x3
 215 0032 7A        		.byte	0x7a
 216 0033 3700 0000 		.long	0x37
 217 0037 02        		.uleb128 0x2
 218 0038 01        		.byte	0x1
 219 0039 08        		.byte	0x8
 220 003a 0000 0000 		.long	.LASF1
 221 003e 04        		.uleb128 0x4
 222 003f 02        		.byte	0x2
 223 0040 05        		.byte	0x5
 224 0041 696E 7400 		.string	"int"
 225 0045 03        		.uleb128 0x3
 226 0046 0000 0000 		.long	.LASF3
 227 004a 03        		.byte	0x3
 228 004b 7C        		.byte	0x7c
 229 004c 5000 0000 		.long	0x50
 230 0050 02        		.uleb128 0x2
 231 0051 02        		.byte	0x2
 232 0052 07        		.byte	0x7
 233 0053 0000 0000 		.long	.LASF4
 234 0057 02        		.uleb128 0x2
 235 0058 04        		.byte	0x4
 236 0059 05        		.byte	0x5
 237 005a 0000 0000 		.long	.LASF5
 238 005e 03        		.uleb128 0x3
 239 005f 0000 0000 		.long	.LASF6
 240 0063 03        		.byte	0x3
 241 0064 7E        		.byte	0x7e
 242 0065 6900 0000 		.long	0x69
 243 0069 02        		.uleb128 0x2
 244 006a 04        		.byte	0x4
 245 006b 07        		.byte	0x7
 246 006c 0000 0000 		.long	.LASF7
 247 0070 02        		.uleb128 0x2
 248 0071 08        		.byte	0x8
 249 0072 05        		.byte	0x5
 250 0073 0000 0000 		.long	.LASF8
 251 0077 02        		.uleb128 0x2
 252 0078 08        		.byte	0x8
 253 0079 07        		.byte	0x7
 254 007a 0000 0000 		.long	.LASF9
 255 007e 05        		.uleb128 0x5
 256 007f 0000 0000 		.long	.LASF23
 257 0083 02        		.byte	0x2
 258 0084 8E        		.byte	0x8e
 259 0085 03        		.byte	0x3
 260 0086 BD00 0000 		.long	0xbd
 261 008a 06        		.uleb128 0x6
 262 008b 0000 0000 		.long	.LASF24
 263 008f 02        		.byte	0x2
 264 0090 8E        		.byte	0x8e
 265 0091 BD00 0000 		.long	0xbd
 266 0095 07        		.uleb128 0x7
 267 0096 08        		.uleb128 0x8
 268 0097 0000 0000 		.long	.LASF10
 269 009b 02        		.byte	0x2
 270 009c 90        		.byte	0x90
GAS LISTING /var/folders/86/8ymzt0g934z5dpmztl89nd000000gn/T//ccz0jCiT.s 			page 10


 271 009d BD00 0000 		.long	0xbd
 272 00a1 08        		.uleb128 0x8
 273 00a2 0000 0000 		.long	.LASF11
 274 00a6 02        		.byte	0x2
 275 00a7 94        		.byte	0x94
 276 00a8 5E00 0000 		.long	0x5e
 277 00ac 09        		.uleb128 0x9
 278 00ad 01        		.byte	0x1
 279 00ae 0000 0000 		.long	.LASF25
 280 00b2 02        		.byte	0x2
 281 00b3 95        		.byte	0x95
 282 00b4 01        		.byte	0x1
 283 00b5 0A        		.uleb128 0xa
 284 00b6 6900 0000 		.long	0x69
 285 00ba 00        		.byte	0
 286 00bb 00        		.byte	0
 287 00bc 00        		.byte	0
 288 00bd 02        		.uleb128 0x2
 289 00be 04        		.byte	0x4
 290 00bf 04        		.byte	0x4
 291 00c0 0000 0000 		.long	.LASF12
 292 00c4 0B        		.uleb128 0xb
 293 00c5 01        		.byte	0x1
 294 00c6 0000 0000 		.long	.LASF14
 295 00ca 01        		.byte	0x1
 296 00cb 1E        		.byte	0x1e
 297 00cc 0000 0000 		.long	.LASF16
 298 00d0 4500 0000 		.long	0x45
 299 00d4 0000 0000 		.long	.LFB6
 300 00d8 0000 0000 		.long	.LFE6
 301 00dc 03        		.byte	0x3
 302 00dd 92        		.byte	0x92
 303 00de 20        		.uleb128 0x20
 304 00df 02        		.sleb128 2
 305 00e0 01        		.byte	0x1
 306 00e1 0C01 0000 		.long	0x10c
 307 00e5 0C        		.uleb128 0xc
 308 00e6 7374 7200 		.string	"str"
 309 00ea 01        		.byte	0x1
 310 00eb 1E        		.byte	0x1e
 311 00ec 0C01 0000 		.long	0x10c
 312 00f0 0000 0000 		.long	.LLST0
 313 00f4 0D        		.uleb128 0xd
 314 00f5 0000 0000 		.long	.LBB6
 315 00f9 0000 0000 		.long	.LBE6
 316 00fd 0E        		.uleb128 0xe
 317 00fe 6900      		.string	"i"
 318 0100 01        		.byte	0x1
 319 0101 1F        		.byte	0x1f
 320 0102 4500 0000 		.long	0x45
 321 0106 0000 0000 		.long	.LLST1
 322 010a 00        		.byte	0
 323 010b 00        		.byte	0
 324 010c 0F        		.uleb128 0xf
 325 010d 02        		.byte	0x2
 326 010e 1201 0000 		.long	0x112
 327 0112 10        		.uleb128 0x10
GAS LISTING /var/folders/86/8ymzt0g934z5dpmztl89nd000000gn/T//ccz0jCiT.s 			page 11


 328 0113 1701 0000 		.long	0x117
 329 0117 02        		.uleb128 0x2
 330 0118 01        		.byte	0x1
 331 0119 08        		.byte	0x8
 332 011a 0000 0000 		.long	.LASF13
 333 011e 11        		.uleb128 0x11
 334 011f 01        		.byte	0x1
 335 0120 0000 0000 		.long	.LASF15
 336 0124 01        		.byte	0x1
 337 0125 2E        		.byte	0x2e
 338 0126 0000 0000 		.long	.LASF17
 339 012a 8401 0000 		.long	0x184
 340 012e 0000 0000 		.long	.LFB7
 341 0132 0000 0000 		.long	.LFE7
 342 0136 0000 0000 		.long	.LLST2
 343 013a 01        		.byte	0x1
 344 013b 8401 0000 		.long	0x184
 345 013f 12        		.uleb128 0x12
 346 0140 0000 0000 		.long	.LASF18
 347 0144 01        		.byte	0x1
 348 0145 2E        		.byte	0x2e
 349 0146 8401 0000 		.long	0x184
 350 014a 0000 0000 		.long	.LLST3
 351 014e 0C        		.uleb128 0xc
 352 014f 7661 6C00 		.string	"val"
 353 0153 01        		.byte	0x1
 354 0154 2E        		.byte	0x2e
 355 0155 4500 0000 		.long	0x45
 356 0159 0000 0000 		.long	.LLST4
 357 015d 12        		.uleb128 0x12
 358 015e 0000 0000 		.long	.LASF19
 359 0162 01        		.byte	0x1
 360 0163 2E        		.byte	0x2e
 361 0164 8A01 0000 		.long	0x18a
 362 0168 0000 0000 		.long	.LLST5
 363 016c 0D        		.uleb128 0xd
 364 016d 0000 0000 		.long	.LBB7
 365 0171 0000 0000 		.long	.LBE7
 366 0175 0E        		.uleb128 0xe
 367 0176 6900      		.string	"i"
 368 0178 01        		.byte	0x1
 369 0179 2F        		.byte	0x2f
 370 017a 2C00 0000 		.long	0x2c
 371 017e 0000 0000 		.long	.LLST6
 372 0182 00        		.byte	0
 373 0183 00        		.byte	0
 374 0184 0F        		.uleb128 0xf
 375 0185 02        		.byte	0x2
 376 0186 1701 0000 		.long	0x117
 377 018a 10        		.uleb128 0x10
 378 018b 2C00 0000 		.long	0x2c
 379 018f 13        		.uleb128 0x13
 380 0190 01        		.byte	0x1
 381 0191 0000 0000 		.long	.LASF26
 382 0195 01        		.byte	0x1
 383 0196 43        		.byte	0x43
 384 0197 0000 0000 		.long	.LASF27
GAS LISTING /var/folders/86/8ymzt0g934z5dpmztl89nd000000gn/T//ccz0jCiT.s 			page 12


 385 019b 0000 0000 		.long	.LFB8
 386 019f 0000 0000 		.long	.LFE8
 387 01a3 03        		.byte	0x3
 388 01a4 92        		.byte	0x92
 389 01a5 20        		.uleb128 0x20
 390 01a6 02        		.sleb128 2
 391 01a7 01        		.byte	0x1
 392 01a8 0A02 0000 		.long	0x20a
 393 01ac 14        		.uleb128 0x14
 394 01ad 6D73 00   		.string	"ms"
 395 01b0 01        		.byte	0x1
 396 01b1 43        		.byte	0x43
 397 01b2 0A02 0000 		.long	0x20a
 398 01b6 06        		.byte	0x6
 399 01b7 68        		.byte	0x68
 400 01b8 93        		.byte	0x93
 401 01b9 01        		.uleb128 0x1
 402 01ba 69        		.byte	0x69
 403 01bb 93        		.byte	0x93
 404 01bc 01        		.uleb128 0x1
 405 01bd 0D        		.uleb128 0xd
 406 01be 0000 0000 		.long	.LBB8
 407 01c2 0000 0000 		.long	.LBE8
 408 01c6 0E        		.uleb128 0xe
 409 01c7 6900      		.string	"i"
 410 01c9 01        		.byte	0x1
 411 01ca 44        		.byte	0x44
 412 01cb 4500 0000 		.long	0x45
 413 01cf 0000 0000 		.long	.LLST7
 414 01d3 15        		.uleb128 0x15
 415 01d4 7E00 0000 		.long	0x7e
 416 01d8 0000 0000 		.long	.LBB9
 417 01dc 0000 0000 		.long	.LBE9
 418 01e0 01        		.byte	0x1
 419 01e1 47        		.byte	0x47
 420 01e2 16        		.uleb128 0x16
 421 01e3 8A00 0000 		.long	0x8a
 422 01e7 0000 0000 		.long	.LLST8
 423 01eb 0D        		.uleb128 0xd
 424 01ec 0000 0000 		.long	.LBB10
 425 01f0 0000 0000 		.long	.LBE10
 426 01f4 17        		.uleb128 0x17
 427 01f5 9600 0000 		.long	0x96
 428 01f9 0000 0000 		.long	.LLST9
 429 01fd 17        		.uleb128 0x17
 430 01fe A100 0000 		.long	0xa1
 431 0202 0000 0000 		.long	.LLST10
 432 0206 00        		.byte	0
 433 0207 00        		.byte	0
 434 0208 00        		.byte	0
 435 0209 00        		.byte	0
 436 020a 10        		.uleb128 0x10
 437 020b 4500 0000 		.long	0x45
 438 020f 18        		.uleb128 0x18
 439 0210 AC00 0000 		.long	0xac
 440 0214 00        		.byte	0
 441 0215 0A        		.uleb128 0xa
GAS LISTING /var/folders/86/8ymzt0g934z5dpmztl89nd000000gn/T//ccz0jCiT.s 			page 13


 442 0216 6900 0000 		.long	0x69
 443 021a 00        		.byte	0
 444 021b 00        		.byte	0
 445               		.section	.debug_abbrev,"",@progbits
 446               	.Ldebug_abbrev0:
 447 0000 01        		.uleb128 0x1
 448 0001 11        		.uleb128 0x11
 449 0002 01        		.byte	0x1
 450 0003 25        		.uleb128 0x25
 451 0004 0E        		.uleb128 0xe
 452 0005 13        		.uleb128 0x13
 453 0006 0B        		.uleb128 0xb
 454 0007 03        		.uleb128 0x3
 455 0008 0E        		.uleb128 0xe
 456 0009 1B        		.uleb128 0x1b
 457 000a 0E        		.uleb128 0xe
 458 000b 11        		.uleb128 0x11
 459 000c 01        		.uleb128 0x1
 460 000d 12        		.uleb128 0x12
 461 000e 01        		.uleb128 0x1
 462 000f 10        		.uleb128 0x10
 463 0010 06        		.uleb128 0x6
 464 0011 00        		.byte	0
 465 0012 00        		.byte	0
 466 0013 02        		.uleb128 0x2
 467 0014 24        		.uleb128 0x24
 468 0015 00        		.byte	0
 469 0016 0B        		.uleb128 0xb
 470 0017 0B        		.uleb128 0xb
 471 0018 3E        		.uleb128 0x3e
 472 0019 0B        		.uleb128 0xb
 473 001a 03        		.uleb128 0x3
 474 001b 0E        		.uleb128 0xe
 475 001c 00        		.byte	0
 476 001d 00        		.byte	0
 477 001e 03        		.uleb128 0x3
 478 001f 16        		.uleb128 0x16
 479 0020 00        		.byte	0
 480 0021 03        		.uleb128 0x3
 481 0022 0E        		.uleb128 0xe
 482 0023 3A        		.uleb128 0x3a
 483 0024 0B        		.uleb128 0xb
 484 0025 3B        		.uleb128 0x3b
 485 0026 0B        		.uleb128 0xb
 486 0027 49        		.uleb128 0x49
 487 0028 13        		.uleb128 0x13
 488 0029 00        		.byte	0
 489 002a 00        		.byte	0
 490 002b 04        		.uleb128 0x4
 491 002c 24        		.uleb128 0x24
 492 002d 00        		.byte	0
 493 002e 0B        		.uleb128 0xb
 494 002f 0B        		.uleb128 0xb
 495 0030 3E        		.uleb128 0x3e
 496 0031 0B        		.uleb128 0xb
 497 0032 03        		.uleb128 0x3
 498 0033 08        		.uleb128 0x8
GAS LISTING /var/folders/86/8ymzt0g934z5dpmztl89nd000000gn/T//ccz0jCiT.s 			page 14


 499 0034 00        		.byte	0
 500 0035 00        		.byte	0
 501 0036 05        		.uleb128 0x5
 502 0037 2E        		.uleb128 0x2e
 503 0038 01        		.byte	0x1
 504 0039 03        		.uleb128 0x3
 505 003a 0E        		.uleb128 0xe
 506 003b 3A        		.uleb128 0x3a
 507 003c 0B        		.uleb128 0xb
 508 003d 3B        		.uleb128 0x3b
 509 003e 0B        		.uleb128 0xb
 510 003f 20        		.uleb128 0x20
 511 0040 0B        		.uleb128 0xb
 512 0041 01        		.uleb128 0x1
 513 0042 13        		.uleb128 0x13
 514 0043 00        		.byte	0
 515 0044 00        		.byte	0
 516 0045 06        		.uleb128 0x6
 517 0046 05        		.uleb128 0x5
 518 0047 00        		.byte	0
 519 0048 03        		.uleb128 0x3
 520 0049 0E        		.uleb128 0xe
 521 004a 3A        		.uleb128 0x3a
 522 004b 0B        		.uleb128 0xb
 523 004c 3B        		.uleb128 0x3b
 524 004d 0B        		.uleb128 0xb
 525 004e 49        		.uleb128 0x49
 526 004f 13        		.uleb128 0x13
 527 0050 00        		.byte	0
 528 0051 00        		.byte	0
 529 0052 07        		.uleb128 0x7
 530 0053 0B        		.uleb128 0xb
 531 0054 01        		.byte	0x1
 532 0055 00        		.byte	0
 533 0056 00        		.byte	0
 534 0057 08        		.uleb128 0x8
 535 0058 34        		.uleb128 0x34
 536 0059 00        		.byte	0
 537 005a 03        		.uleb128 0x3
 538 005b 0E        		.uleb128 0xe
 539 005c 3A        		.uleb128 0x3a
 540 005d 0B        		.uleb128 0xb
 541 005e 3B        		.uleb128 0x3b
 542 005f 0B        		.uleb128 0xb
 543 0060 49        		.uleb128 0x49
 544 0061 13        		.uleb128 0x13
 545 0062 00        		.byte	0
 546 0063 00        		.byte	0
 547 0064 09        		.uleb128 0x9
 548 0065 2E        		.uleb128 0x2e
 549 0066 01        		.byte	0x1
 550 0067 3F        		.uleb128 0x3f
 551 0068 0C        		.uleb128 0xc
 552 0069 03        		.uleb128 0x3
 553 006a 0E        		.uleb128 0xe
 554 006b 3A        		.uleb128 0x3a
 555 006c 0B        		.uleb128 0xb
GAS LISTING /var/folders/86/8ymzt0g934z5dpmztl89nd000000gn/T//ccz0jCiT.s 			page 15


 556 006d 3B        		.uleb128 0x3b
 557 006e 0B        		.uleb128 0xb
 558 006f 3C        		.uleb128 0x3c
 559 0070 0C        		.uleb128 0xc
 560 0071 00        		.byte	0
 561 0072 00        		.byte	0
 562 0073 0A        		.uleb128 0xa
 563 0074 05        		.uleb128 0x5
 564 0075 00        		.byte	0
 565 0076 49        		.uleb128 0x49
 566 0077 13        		.uleb128 0x13
 567 0078 00        		.byte	0
 568 0079 00        		.byte	0
 569 007a 0B        		.uleb128 0xb
 570 007b 2E        		.uleb128 0x2e
 571 007c 01        		.byte	0x1
 572 007d 3F        		.uleb128 0x3f
 573 007e 0C        		.uleb128 0xc
 574 007f 03        		.uleb128 0x3
 575 0080 0E        		.uleb128 0xe
 576 0081 3A        		.uleb128 0x3a
 577 0082 0B        		.uleb128 0xb
 578 0083 3B        		.uleb128 0x3b
 579 0084 0B        		.uleb128 0xb
 580 0085 8740      		.uleb128 0x2007
 581 0087 0E        		.uleb128 0xe
 582 0088 49        		.uleb128 0x49
 583 0089 13        		.uleb128 0x13
 584 008a 11        		.uleb128 0x11
 585 008b 01        		.uleb128 0x1
 586 008c 12        		.uleb128 0x12
 587 008d 01        		.uleb128 0x1
 588 008e 40        		.uleb128 0x40
 589 008f 0A        		.uleb128 0xa
 590 0090 9742      		.uleb128 0x2117
 591 0092 0C        		.uleb128 0xc
 592 0093 01        		.uleb128 0x1
 593 0094 13        		.uleb128 0x13
 594 0095 00        		.byte	0
 595 0096 00        		.byte	0
 596 0097 0C        		.uleb128 0xc
 597 0098 05        		.uleb128 0x5
 598 0099 00        		.byte	0
 599 009a 03        		.uleb128 0x3
 600 009b 08        		.uleb128 0x8
 601 009c 3A        		.uleb128 0x3a
 602 009d 0B        		.uleb128 0xb
 603 009e 3B        		.uleb128 0x3b
 604 009f 0B        		.uleb128 0xb
 605 00a0 49        		.uleb128 0x49
 606 00a1 13        		.uleb128 0x13
 607 00a2 02        		.uleb128 0x2
 608 00a3 06        		.uleb128 0x6
 609 00a4 00        		.byte	0
 610 00a5 00        		.byte	0
 611 00a6 0D        		.uleb128 0xd
 612 00a7 0B        		.uleb128 0xb
GAS LISTING /var/folders/86/8ymzt0g934z5dpmztl89nd000000gn/T//ccz0jCiT.s 			page 16


 613 00a8 01        		.byte	0x1
 614 00a9 11        		.uleb128 0x11
 615 00aa 01        		.uleb128 0x1
 616 00ab 12        		.uleb128 0x12
 617 00ac 01        		.uleb128 0x1
 618 00ad 00        		.byte	0
 619 00ae 00        		.byte	0
 620 00af 0E        		.uleb128 0xe
 621 00b0 34        		.uleb128 0x34
 622 00b1 00        		.byte	0
 623 00b2 03        		.uleb128 0x3
 624 00b3 08        		.uleb128 0x8
 625 00b4 3A        		.uleb128 0x3a
 626 00b5 0B        		.uleb128 0xb
 627 00b6 3B        		.uleb128 0x3b
 628 00b7 0B        		.uleb128 0xb
 629 00b8 49        		.uleb128 0x49
 630 00b9 13        		.uleb128 0x13
 631 00ba 02        		.uleb128 0x2
 632 00bb 06        		.uleb128 0x6
 633 00bc 00        		.byte	0
 634 00bd 00        		.byte	0
 635 00be 0F        		.uleb128 0xf
 636 00bf 0F        		.uleb128 0xf
 637 00c0 00        		.byte	0
 638 00c1 0B        		.uleb128 0xb
 639 00c2 0B        		.uleb128 0xb
 640 00c3 49        		.uleb128 0x49
 641 00c4 13        		.uleb128 0x13
 642 00c5 00        		.byte	0
 643 00c6 00        		.byte	0
 644 00c7 10        		.uleb128 0x10
 645 00c8 26        		.uleb128 0x26
 646 00c9 00        		.byte	0
 647 00ca 49        		.uleb128 0x49
 648 00cb 13        		.uleb128 0x13
 649 00cc 00        		.byte	0
 650 00cd 00        		.byte	0
 651 00ce 11        		.uleb128 0x11
 652 00cf 2E        		.uleb128 0x2e
 653 00d0 01        		.byte	0x1
 654 00d1 3F        		.uleb128 0x3f
 655 00d2 0C        		.uleb128 0xc
 656 00d3 03        		.uleb128 0x3
 657 00d4 0E        		.uleb128 0xe
 658 00d5 3A        		.uleb128 0x3a
 659 00d6 0B        		.uleb128 0xb
 660 00d7 3B        		.uleb128 0x3b
 661 00d8 0B        		.uleb128 0xb
 662 00d9 8740      		.uleb128 0x2007
 663 00db 0E        		.uleb128 0xe
 664 00dc 49        		.uleb128 0x49
 665 00dd 13        		.uleb128 0x13
 666 00de 11        		.uleb128 0x11
 667 00df 01        		.uleb128 0x1
 668 00e0 12        		.uleb128 0x12
 669 00e1 01        		.uleb128 0x1
GAS LISTING /var/folders/86/8ymzt0g934z5dpmztl89nd000000gn/T//ccz0jCiT.s 			page 17


 670 00e2 40        		.uleb128 0x40
 671 00e3 06        		.uleb128 0x6
 672 00e4 9742      		.uleb128 0x2117
 673 00e6 0C        		.uleb128 0xc
 674 00e7 01        		.uleb128 0x1
 675 00e8 13        		.uleb128 0x13
 676 00e9 00        		.byte	0
 677 00ea 00        		.byte	0
 678 00eb 12        		.uleb128 0x12
 679 00ec 05        		.uleb128 0x5
 680 00ed 00        		.byte	0
 681 00ee 03        		.uleb128 0x3
 682 00ef 0E        		.uleb128 0xe
 683 00f0 3A        		.uleb128 0x3a
 684 00f1 0B        		.uleb128 0xb
 685 00f2 3B        		.uleb128 0x3b
 686 00f3 0B        		.uleb128 0xb
 687 00f4 49        		.uleb128 0x49
 688 00f5 13        		.uleb128 0x13
 689 00f6 02        		.uleb128 0x2
 690 00f7 06        		.uleb128 0x6
 691 00f8 00        		.byte	0
 692 00f9 00        		.byte	0
 693 00fa 13        		.uleb128 0x13
 694 00fb 2E        		.uleb128 0x2e
 695 00fc 01        		.byte	0x1
 696 00fd 3F        		.uleb128 0x3f
 697 00fe 0C        		.uleb128 0xc
 698 00ff 03        		.uleb128 0x3
 699 0100 0E        		.uleb128 0xe
 700 0101 3A        		.uleb128 0x3a
 701 0102 0B        		.uleb128 0xb
 702 0103 3B        		.uleb128 0x3b
 703 0104 0B        		.uleb128 0xb
 704 0105 8740      		.uleb128 0x2007
 705 0107 0E        		.uleb128 0xe
 706 0108 11        		.uleb128 0x11
 707 0109 01        		.uleb128 0x1
 708 010a 12        		.uleb128 0x12
 709 010b 01        		.uleb128 0x1
 710 010c 40        		.uleb128 0x40
 711 010d 0A        		.uleb128 0xa
 712 010e 9742      		.uleb128 0x2117
 713 0110 0C        		.uleb128 0xc
 714 0111 01        		.uleb128 0x1
 715 0112 13        		.uleb128 0x13
 716 0113 00        		.byte	0
 717 0114 00        		.byte	0
 718 0115 14        		.uleb128 0x14
 719 0116 05        		.uleb128 0x5
 720 0117 00        		.byte	0
 721 0118 03        		.uleb128 0x3
 722 0119 08        		.uleb128 0x8
 723 011a 3A        		.uleb128 0x3a
 724 011b 0B        		.uleb128 0xb
 725 011c 3B        		.uleb128 0x3b
 726 011d 0B        		.uleb128 0xb
GAS LISTING /var/folders/86/8ymzt0g934z5dpmztl89nd000000gn/T//ccz0jCiT.s 			page 18


 727 011e 49        		.uleb128 0x49
 728 011f 13        		.uleb128 0x13
 729 0120 02        		.uleb128 0x2
 730 0121 0A        		.uleb128 0xa
 731 0122 00        		.byte	0
 732 0123 00        		.byte	0
 733 0124 15        		.uleb128 0x15
 734 0125 1D        		.uleb128 0x1d
 735 0126 01        		.byte	0x1
 736 0127 31        		.uleb128 0x31
 737 0128 13        		.uleb128 0x13
 738 0129 11        		.uleb128 0x11
 739 012a 01        		.uleb128 0x1
 740 012b 12        		.uleb128 0x12
 741 012c 01        		.uleb128 0x1
 742 012d 58        		.uleb128 0x58
 743 012e 0B        		.uleb128 0xb
 744 012f 59        		.uleb128 0x59
 745 0130 0B        		.uleb128 0xb
 746 0131 00        		.byte	0
 747 0132 00        		.byte	0
 748 0133 16        		.uleb128 0x16
 749 0134 05        		.uleb128 0x5
 750 0135 00        		.byte	0
 751 0136 31        		.uleb128 0x31
 752 0137 13        		.uleb128 0x13
 753 0138 02        		.uleb128 0x2
 754 0139 06        		.uleb128 0x6
 755 013a 00        		.byte	0
 756 013b 00        		.byte	0
 757 013c 17        		.uleb128 0x17
 758 013d 34        		.uleb128 0x34
 759 013e 00        		.byte	0
 760 013f 31        		.uleb128 0x31
 761 0140 13        		.uleb128 0x13
 762 0141 02        		.uleb128 0x2
 763 0142 06        		.uleb128 0x6
 764 0143 00        		.byte	0
 765 0144 00        		.byte	0
 766 0145 18        		.uleb128 0x18
 767 0146 2E        		.uleb128 0x2e
 768 0147 01        		.byte	0x1
 769 0148 47        		.uleb128 0x47
 770 0149 13        		.uleb128 0x13
 771 014a 20        		.uleb128 0x20
 772 014b 0B        		.uleb128 0xb
 773 014c 00        		.byte	0
 774 014d 00        		.byte	0
 775 014e 00        		.byte	0
 776               		.section	.debug_loc,"",@progbits
 777               	.Ldebug_loc0:
 778               	.LLST0:
 779 0000 0000 0000 		.long	.LVL0-.Ltext0
 780 0004 1200 0000 		.long	.LVL3-.Ltext0
 781 0008 0600      		.word	0x6
 782 000a 68        		.byte	0x68
 783 000b 93        		.byte	0x93
GAS LISTING /var/folders/86/8ymzt0g934z5dpmztl89nd000000gn/T//ccz0jCiT.s 			page 19


 784 000c 01        		.uleb128 0x1
 785 000d 69        		.byte	0x69
 786 000e 93        		.byte	0x93
 787 000f 01        		.uleb128 0x1
 788 0010 1200 0000 		.long	.LVL3-.Ltext0
 789 0014 1400 0000 		.long	.LFE6-.Ltext0
 790 0018 0400      		.word	0x4
 791 001a F3        		.byte	0xf3
 792 001b 01        		.uleb128 0x1
 793 001c 68        		.byte	0x68
 794 001d 9F        		.byte	0x9f
 795 001e 0000 0000 		.long	0
 796 0022 0000 0000 		.long	0
 797               	.LLST1:
 798 0026 0000 0000 		.long	.LVL0-.Ltext0
 799 002a 0400 0000 		.long	.LVL1-.Ltext0
 800 002e 0200      		.word	0x2
 801 0030 30        		.byte	0x30
 802 0031 9F        		.byte	0x9f
 803 0032 0400 0000 		.long	.LVL1-.Ltext0
 804 0036 0A00 0000 		.long	.LVL2-.Ltext0
 805 003a 0700      		.word	0x7
 806 003c 88        		.byte	0x88
 807 003d 00        		.sleb128 0
 808 003e 20        		.byte	0x20
 809 003f 8E        		.byte	0x8e
 810 0040 00        		.sleb128 0
 811 0041 22        		.byte	0x22
 812 0042 9F        		.byte	0x9f
 813 0043 0A00 0000 		.long	.LVL2-.Ltext0
 814 0047 1400 0000 		.long	.LFE6-.Ltext0
 815 004b 0600      		.word	0x6
 816 004d 62        		.byte	0x62
 817 004e 93        		.byte	0x93
 818 004f 01        		.uleb128 0x1
 819 0050 63        		.byte	0x63
 820 0051 93        		.byte	0x93
 821 0052 01        		.uleb128 0x1
 822 0053 0000 0000 		.long	0
 823 0057 0000 0000 		.long	0
 824               	.LLST2:
 825 005b 1400 0000 		.long	.LFB7-.Ltext0
 826 005f 1600 0000 		.long	.LCFI0-.Ltext0
 827 0063 0300      		.word	0x3
 828 0065 92        		.byte	0x92
 829 0066 20        		.uleb128 0x20
 830 0067 02        		.sleb128 2
 831 0068 1600 0000 		.long	.LCFI0-.Ltext0
 832 006c 1800 0000 		.long	.LCFI1-.Ltext0
 833 0070 0300      		.word	0x3
 834 0072 92        		.byte	0x92
 835 0073 20        		.uleb128 0x20
 836 0074 03        		.sleb128 3
 837 0075 1800 0000 		.long	.LCFI1-.Ltext0
 838 0079 1A00 0000 		.long	.LCFI2-.Ltext0
 839 007d 0300      		.word	0x3
 840 007f 92        		.byte	0x92
GAS LISTING /var/folders/86/8ymzt0g934z5dpmztl89nd000000gn/T//ccz0jCiT.s 			page 20


 841 0080 20        		.uleb128 0x20
 842 0081 04        		.sleb128 4
 843 0082 1A00 0000 		.long	.LCFI2-.Ltext0
 844 0086 1C00 0000 		.long	.LCFI3-.Ltext0
 845 008a 0300      		.word	0x3
 846 008c 92        		.byte	0x92
 847 008d 20        		.uleb128 0x20
 848 008e 05        		.sleb128 5
 849 008f 1C00 0000 		.long	.LCFI3-.Ltext0
 850 0093 1E00 0000 		.long	.LCFI4-.Ltext0
 851 0097 0300      		.word	0x3
 852 0099 92        		.byte	0x92
 853 009a 20        		.uleb128 0x20
 854 009b 06        		.sleb128 6
 855 009c 1E00 0000 		.long	.LCFI4-.Ltext0
 856 00a0 7000 0000 		.long	.LFE7-.Ltext0
 857 00a4 0300      		.word	0x3
 858 00a6 92        		.byte	0x92
 859 00a7 20        		.uleb128 0x20
 860 00a8 07        		.sleb128 7
 861 00a9 0000 0000 		.long	0
 862 00ad 0000 0000 		.long	0
 863               	.LLST3:
 864 00b1 1400 0000 		.long	.LVL4-.Ltext0
 865 00b5 2200 0000 		.long	.LVL5-.Ltext0
 866 00b9 0600      		.word	0x6
 867 00bb 68        		.byte	0x68
 868 00bc 93        		.byte	0x93
 869 00bd 01        		.uleb128 0x1
 870 00be 69        		.byte	0x69
 871 00bf 93        		.byte	0x93
 872 00c0 01        		.uleb128 0x1
 873 00c1 2200 0000 		.long	.LVL5-.Ltext0
 874 00c5 7000 0000 		.long	.LFE7-.Ltext0
 875 00c9 0600      		.word	0x6
 876 00cb 6E        		.byte	0x6e
 877 00cc 93        		.byte	0x93
 878 00cd 01        		.uleb128 0x1
 879 00ce 6F        		.byte	0x6f
 880 00cf 93        		.byte	0x93
 881 00d0 01        		.uleb128 0x1
 882 00d1 0000 0000 		.long	0
 883 00d5 0000 0000 		.long	0
 884               	.LLST4:
 885 00d9 1400 0000 		.long	.LVL4-.Ltext0
 886 00dd 3E00 0000 		.long	.LVL6-.Ltext0
 887 00e1 0600      		.word	0x6
 888 00e3 66        		.byte	0x66
 889 00e4 93        		.byte	0x93
 890 00e5 01        		.uleb128 0x1
 891 00e6 67        		.byte	0x67
 892 00e7 93        		.byte	0x93
 893 00e8 01        		.uleb128 0x1
 894 00e9 3E00 0000 		.long	.LVL6-.Ltext0
 895 00ed 4400 0000 		.long	.LVL7-.Ltext0
 896 00f1 0600      		.word	0x6
 897 00f3 68        		.byte	0x68
GAS LISTING /var/folders/86/8ymzt0g934z5dpmztl89nd000000gn/T//ccz0jCiT.s 			page 21


 898 00f4 93        		.byte	0x93
 899 00f5 01        		.uleb128 0x1
 900 00f6 69        		.byte	0x69
 901 00f7 93        		.byte	0x93
 902 00f8 01        		.uleb128 0x1
 903 00f9 0000 0000 		.long	0
 904 00fd 0000 0000 		.long	0
 905               	.LLST5:
 906 0101 1400 0000 		.long	.LVL4-.Ltext0
 907 0105 3E00 0000 		.long	.LVL6-.Ltext0
 908 0109 0100      		.word	0x1
 909 010b 64        		.byte	0x64
 910 010c 3E00 0000 		.long	.LVL6-.Ltext0
 911 0110 6400 0000 		.long	.LVL9-.Ltext0
 912 0114 0100      		.word	0x1
 913 0116 60        		.byte	0x60
 914 0117 6400 0000 		.long	.LVL9-.Ltext0
 915 011b 7000 0000 		.long	.LFE7-.Ltext0
 916 011f 0100      		.word	0x1
 917 0121 64        		.byte	0x64
 918 0122 0000 0000 		.long	0
 919 0126 0000 0000 		.long	0
 920               	.LLST6:
 921 012a 2200 0000 		.long	.LVL5-.Ltext0
 922 012e 3E00 0000 		.long	.LVL6-.Ltext0
 923 0132 0200      		.word	0x2
 924 0134 3E        		.byte	0x3e
 925 0135 9F        		.byte	0x9f
 926 0136 3E00 0000 		.long	.LVL6-.Ltext0
 927 013a 6400 0000 		.long	.LVL9-.Ltext0
 928 013e 0100      		.word	0x1
 929 0140 5F        		.byte	0x5f
 930 0141 0000 0000 		.long	0
 931 0145 0000 0000 		.long	0
 932               	.LLST7:
 933 0149 7000 0000 		.long	.LVL10-.Ltext0
 934 014d 7400 0000 		.long	.LVL11-.Ltext0
 935 0151 0200      		.word	0x2
 936 0153 30        		.byte	0x30
 937 0154 9F        		.byte	0x9f
 938 0155 7400 0000 		.long	.LVL11-.Ltext0
 939 0159 8E00 0000 		.long	.LFE8-.Ltext0
 940 015d 0600      		.word	0x6
 941 015f 62        		.byte	0x62
 942 0160 93        		.byte	0x93
 943 0161 01        		.uleb128 0x1
 944 0162 63        		.byte	0x63
 945 0163 93        		.byte	0x93
 946 0164 01        		.uleb128 0x1
 947 0165 0000 0000 		.long	0
 948 0169 0000 0000 		.long	0
 949               	.LLST8:
 950 016d 7A00 0000 		.long	.LVL12-.Ltext0
 951 0171 8C00 0000 		.long	.LVL14-.Ltext0
 952 0175 0600      		.word	0x6
 953 0177 9E        		.byte	0x9e
 954 0178 04        		.uleb128 0x4
GAS LISTING /var/folders/86/8ymzt0g934z5dpmztl89nd000000gn/T//ccz0jCiT.s 			page 22


 955 0179 0000 803F 		.long	0x3f800000
 956 017d 0000 0000 		.long	0
 957 0181 0000 0000 		.long	0
 958               	.LLST9:
 959 0185 7A00 0000 		.long	.LVL12-.Ltext0
 960 0189 8C00 0000 		.long	.LVL14-.Ltext0
 961 018d 0600      		.word	0x6
 962 018f 9E        		.byte	0x9e
 963 0190 04        		.uleb128 0x4
 964 0191 0000 FA45 		.long	0x45fa0000
 965 0195 0000 0000 		.long	0
 966 0199 0000 0000 		.long	0
 967               	.LLST10:
 968 019d 7A00 0000 		.long	.LVL12-.Ltext0
 969 01a1 8C00 0000 		.long	.LVL14-.Ltext0
 970 01a5 0400      		.word	0x4
 971 01a7 0A        		.byte	0xa
 972 01a8 401F      		.word	0x1f40
 973 01aa 9F        		.byte	0x9f
 974 01ab 0000 0000 		.long	0
 975 01af 0000 0000 		.long	0
 976               		.section	.debug_aranges,"",@progbits
 977 0000 1C00 0000 		.long	0x1c
 978 0004 0200      		.word	0x2
 979 0006 0000 0000 		.long	.Ldebug_info0
 980 000a 04        		.byte	0x4
 981 000b 00        		.byte	0
 982 000c 0000      		.word	0
 983 000e 0000      		.word	0
 984 0010 0000 0000 		.long	.Ltext0
 985 0014 8E00 0000 		.long	.Letext0-.Ltext0
 986 0018 0000 0000 		.long	0
 987 001c 0000 0000 		.long	0
 988               		.section	.debug_line,"",@progbits
 989               	.Ldebug_line0:
 990 0000 EA00 0000 		.section	.debug_str,"MS",@progbits,1
 990      0200 9B00 
 990      0000 0201 
 990      FB0E 0A00 
 990      0101 0101 
 991               	.LASF17:
 992 0000 5F5A 3763 		.string	"_Z7cp_itoaPcjh"
 992      705F 6974 
 992      6F61 5063 
 992      6A68 00
 993               	.LASF20:
 994 000f 474E 5520 		.string	"GNU C++ 4.8.1 -mmcu=atmega324pa -g -Os -std=c++98 -fpack-struct -fshort-enums -funsigned-
 994      432B 2B20 
 994      342E 382E 
 994      3120 2D6D 
 994      6D63 753D 
 995               	.LASF25:
 996 00b2 5F5F 6275 		.string	"__builtin_avr_delay_cycles"
 996      696C 7469 
 996      6E5F 6176 
 996      725F 6465 
 996      6C61 795F 
GAS LISTING /var/folders/86/8ymzt0g934z5dpmztl89nd000000gn/T//ccz0jCiT.s 			page 23


 997               	.LASF18:
 998 00cd 6275 6631 		.string	"buf16"
 998      3600 
 999               	.LASF1:
 1000 00d3 756E 7369 		.string	"unsigned char"
 1000      676E 6564 
 1000      2063 6861 
 1000      7200 
 1001               	.LASF15:
 1002 00e1 6370 5F69 		.string	"cp_itoa"
 1002      746F 6100 
 1003               	.LASF7:
 1004 00e9 6C6F 6E67 		.string	"long unsigned int"
 1004      2075 6E73 
 1004      6967 6E65 
 1004      6420 696E 
 1004      7400 
 1005               	.LASF23:
 1006 00fb 5F64 656C 		.string	"_delay_ms"
 1006      6179 5F6D 
 1006      7300 
 1007               	.LASF12:
 1008 0105 646F 7562 		.string	"double"
 1008      6C65 00
 1009               	.LASF10:
 1010 010c 5F5F 746D 		.string	"__tmp"
 1010      7000 
 1011               	.LASF22:
 1012 0112 2F55 7365 		.string	"/Users/Esteban/dev/robot-poly/lib_dir"
 1012      7273 2F45 
 1012      7374 6562 
 1012      616E 2F64 
 1012      6576 2F72 
 1013               	.LASF19:
 1014 0138 6261 7365 		.string	"base"
 1014      00
 1015               	.LASF4:
 1016 013d 756E 7369 		.string	"unsigned int"
 1016      676E 6564 
 1016      2069 6E74 
 1016      00
 1017               	.LASF9:
 1018 014a 6C6F 6E67 		.string	"long long unsigned int"
 1018      206C 6F6E 
 1018      6720 756E 
 1018      7369 676E 
 1018      6564 2069 
 1019               	.LASF2:
 1020 0161 7569 6E74 		.string	"uint8_t"
 1020      385F 7400 
 1021               	.LASF8:
 1022 0169 6C6F 6E67 		.string	"long long int"
 1022      206C 6F6E 
 1022      6720 696E 
 1022      7400 
 1023               	.LASF16:
 1024 0177 5F5A 3963 		.string	"_Z9cp_strlenPKc"
GAS LISTING /var/folders/86/8ymzt0g934z5dpmztl89nd000000gn/T//ccz0jCiT.s 			page 24


 1024      705F 7374 
 1024      726C 656E 
 1024      504B 6300 
 1025               	.LASF13:
 1026 0187 6368 6172 		.string	"char"
 1026      00
 1027               	.LASF14:
 1028 018c 6370 5F73 		.string	"cp_strlen"
 1028      7472 6C65 
 1028      6E00 
 1029               	.LASF21:
 1030 0196 6375 7374 		.string	"customprocs.cpp"
 1030      6F6D 7072 
 1030      6F63 732E 
 1030      6370 7000 
 1031               	.LASF27:
 1032 01a6 5F5A 3130 		.string	"_Z10cp_wait_msj"
 1032      6370 5F77 
 1032      6169 745F 
 1032      6D73 6A00 
 1033               	.LASF3:
 1034 01b6 7569 6E74 		.string	"uint16_t"
 1034      3136 5F74 
 1034      00
 1035               	.LASF26:
 1036 01bf 6370 5F77 		.string	"cp_wait_ms"
 1036      6169 745F 
 1036      6D73 00
 1037               	.LASF6:
 1038 01ca 7569 6E74 		.string	"uint32_t"
 1038      3332 5F74 
 1038      00
 1039               	.LASF5:
 1040 01d3 6C6F 6E67 		.string	"long int"
 1040      2069 6E74 
 1040      00
 1041               	.LASF0:
 1042 01dc 7369 676E 		.string	"signed char"
 1042      6564 2063 
 1042      6861 7200 
 1043               	.LASF11:
 1044 01e8 5F5F 7469 		.string	"__ticks_dc"
 1044      636B 735F 
 1044      6463 00
 1045               	.LASF24:
 1046 01f3 5F5F 6D73 		.string	"__ms"
 1046      00
 1047               		.ident	"GCC: (GNU) 4.8.1"
 1048               	.global __do_copy_data
GAS LISTING /var/folders/86/8ymzt0g934z5dpmztl89nd000000gn/T//ccz0jCiT.s 			page 25


DEFINED SYMBOLS
                            *ABS*:00000000 customprocs.cpp
/var/folders/86/8ymzt0g934z5dpmztl89nd000000gn/T//ccz0jCiT.s:2      *ABS*:0000003e __SP_H__
/var/folders/86/8ymzt0g934z5dpmztl89nd000000gn/T//ccz0jCiT.s:3      *ABS*:0000003d __SP_L__
/var/folders/86/8ymzt0g934z5dpmztl89nd000000gn/T//ccz0jCiT.s:4      *ABS*:0000003f __SREG__
/var/folders/86/8ymzt0g934z5dpmztl89nd000000gn/T//ccz0jCiT.s:5      *ABS*:00000000 __tmp_reg__
/var/folders/86/8ymzt0g934z5dpmztl89nd000000gn/T//ccz0jCiT.s:6      *ABS*:00000001 __zero_reg__
/var/folders/86/8ymzt0g934z5dpmztl89nd000000gn/T//ccz0jCiT.s:12     .text:00000000 _Z9cp_strlenPKc
/var/folders/86/8ymzt0g934z5dpmztl89nd000000gn/T//ccz0jCiT.s:49     .text:00000014 _Z7cp_itoaPcjh
/var/folders/86/8ymzt0g934z5dpmztl89nd000000gn/T//ccz0jCiT.s:146    .text:00000070 _Z10cp_wait_msj

UNDEFINED SYMBOLS
__udivmodhi4
__do_copy_data
