GAS LISTING /var/folders/86/8ymzt0g934z5dpmztl89nd000000gn/T//ccd3mB82.s 			page 1


   1               		.file	"lcm_so1602dtr_m.cpp"
   2               	__SP_H__ = 0x3e
   3               	__SP_L__ = 0x3d
   4               	__SREG__ = 0x3f
   5               	__tmp_reg__ = 0
   6               	__zero_reg__ = 1
   7               		.text
   8               	.Ltext0:
   9               		.cfi_sections	.debug_frame
  10               		.type	_ZL12_lcm_fast_enPVh, @function
  11               	_ZL12_lcm_fast_enPVh:
  12               	.LFB7:
  13               		.file 1 "lcm_so1602dtr_m.cpp"
   1:lcm_so1602dtr_m.cpp **** /*
   2:lcm_so1602dtr_m.cpp ****  LCM-SO1602DTR/M driver for the ATmega16 (or any other compatible AVR chip).
   3:lcm_so1602dtr_m.cpp ****  Copyright (C) 2009  Philippe Proulx (philippe.proulx@polymtl.ca)
   4:lcm_so1602dtr_m.cpp ****  
   5:lcm_so1602dtr_m.cpp ****  2012-02-08 - Ajout:
   6:lcm_so1602dtr_m.cpp ****  Broche 0 ˆ 0V reliŽe ˆ VO pour un contraste maximal. - L. Tremblay
   7:lcm_so1602dtr_m.cpp ****  
   8:lcm_so1602dtr_m.cpp ****  This program is free software: you can redistribute it and/or modify
   9:lcm_so1602dtr_m.cpp ****  it under the terms of the GNU Lesser General Public License as published by
  10:lcm_so1602dtr_m.cpp ****  the Free Software Foundation, either version 3 of the License, or
  11:lcm_so1602dtr_m.cpp ****  (at your option) any later version.
  12:lcm_so1602dtr_m.cpp ****  
  13:lcm_so1602dtr_m.cpp ****  This program is distributed in the hope that it will be useful,
  14:lcm_so1602dtr_m.cpp ****  but WITHOUT ANY WARRANTY; without even the implied warranty of
  15:lcm_so1602dtr_m.cpp ****  MERCHANTABILITY or FITNESS FOR A PARTICULAR PURPOSE.  See the
  16:lcm_so1602dtr_m.cpp ****  GNU Lesser General Public License for more details.
  17:lcm_so1602dtr_m.cpp ****  
  18:lcm_so1602dtr_m.cpp ****  You should have received a copy of the GNU Lesser General Public License
  19:lcm_so1602dtr_m.cpp ****  along with this program.  If not, see <http://www.gnu.org/licenses/>.
  20:lcm_so1602dtr_m.cpp ****  */
  21:lcm_so1602dtr_m.cpp **** 
  22:lcm_so1602dtr_m.cpp **** #include <avr/io.h>
  23:lcm_so1602dtr_m.cpp **** #include <util/delay.h>
  24:lcm_so1602dtr_m.cpp **** 
  25:lcm_so1602dtr_m.cpp **** #include "lcm_so1602dtr_m.h"
  26:lcm_so1602dtr_m.cpp **** 
  27:lcm_so1602dtr_m.cpp **** #define LCM_CL		~(_BV(LCM_RS) | _BV(LCM_RW) | _BV(LCM_DB7) | \
  28:lcm_so1602dtr_m.cpp **** _BV(LCM_DB6) | _BV(LCM_DB5) | _BV(LCM_DB4))
  29:lcm_so1602dtr_m.cpp **** 
  30:lcm_so1602dtr_m.cpp **** /**
  31:lcm_so1602dtr_m.cpp ****  * Remet à 0 les broches occupées par l'afficheur LCD sur un port.
  32:lcm_so1602dtr_m.cpp ****  *
  33:lcm_so1602dtr_m.cpp ****  * @param port	Port AVR occupé par l'afficheur
  34:lcm_so1602dtr_m.cpp ****  */
  35:lcm_so1602dtr_m.cpp **** static inline void _lcm_cp(volatile uint8_t* port) {
  36:lcm_so1602dtr_m.cpp **** 	*port &= LCM_CL;
  37:lcm_so1602dtr_m.cpp **** }
  38:lcm_so1602dtr_m.cpp **** 
  39:lcm_so1602dtr_m.cpp **** /**
  40:lcm_so1602dtr_m.cpp ****  * Active, attend et désactive la ligne EN.
  41:lcm_so1602dtr_m.cpp ****  *
  42:lcm_so1602dtr_m.cpp ****  * @param port	Port AVR occupé par l'afficheur
  43:lcm_so1602dtr_m.cpp ****  */
  44:lcm_so1602dtr_m.cpp **** static void _lcm_fast_en(volatile uint8_t* port) {
GAS LISTING /var/folders/86/8ymzt0g934z5dpmztl89nd000000gn/T//ccd3mB82.s 			page 2


  14               		.loc 1 44 0
  15               		.cfi_startproc
  16               	.LVL0:
  17               	/* prologue: function */
  18               	/* frame size = 0 */
  19               	/* stack size = 0 */
  20               	.L__stack_usage = 0
  21 0000 FC01      		movw r30,r24
  45:lcm_so1602dtr_m.cpp **** 	*port |= _BV(LCM_EN);
  22               		.loc 1 45 0
  23 0002 8081      		ld r24,Z
  24               	.LVL1:
  25 0004 8062      		ori r24,lo8(32)
  26 0006 8083      		st Z,r24
  27               	.LVL2:
  28               	.LBB40:
  29               	.LBB41:
  30               		.file 2 "/usr/local/CrossPack-AVR-20131216/avr/include/util/delay_basic.h"
   1:/usr/local/CrossPack-AVR-20131216/avr/include/util/delay_basic.h **** /* Copyright (c) 2002, Marek Michalkiewicz
   2:/usr/local/CrossPack-AVR-20131216/avr/include/util/delay_basic.h ****    Copyright (c) 2007 Joerg Wunsch
   3:/usr/local/CrossPack-AVR-20131216/avr/include/util/delay_basic.h ****    All rights reserved.
   4:/usr/local/CrossPack-AVR-20131216/avr/include/util/delay_basic.h **** 
   5:/usr/local/CrossPack-AVR-20131216/avr/include/util/delay_basic.h ****    Redistribution and use in source and binary forms, with or without
   6:/usr/local/CrossPack-AVR-20131216/avr/include/util/delay_basic.h ****    modification, are permitted provided that the following conditions are met:
   7:/usr/local/CrossPack-AVR-20131216/avr/include/util/delay_basic.h **** 
   8:/usr/local/CrossPack-AVR-20131216/avr/include/util/delay_basic.h ****    * Redistributions of source code must retain the above copyright
   9:/usr/local/CrossPack-AVR-20131216/avr/include/util/delay_basic.h ****      notice, this list of conditions and the following disclaimer.
  10:/usr/local/CrossPack-AVR-20131216/avr/include/util/delay_basic.h **** 
  11:/usr/local/CrossPack-AVR-20131216/avr/include/util/delay_basic.h ****    * Redistributions in binary form must reproduce the above copyright
  12:/usr/local/CrossPack-AVR-20131216/avr/include/util/delay_basic.h ****      notice, this list of conditions and the following disclaimer in
  13:/usr/local/CrossPack-AVR-20131216/avr/include/util/delay_basic.h ****      the documentation and/or other materials provided with the
  14:/usr/local/CrossPack-AVR-20131216/avr/include/util/delay_basic.h ****      distribution.
  15:/usr/local/CrossPack-AVR-20131216/avr/include/util/delay_basic.h **** 
  16:/usr/local/CrossPack-AVR-20131216/avr/include/util/delay_basic.h ****    * Neither the name of the copyright holders nor the names of
  17:/usr/local/CrossPack-AVR-20131216/avr/include/util/delay_basic.h ****      contributors may be used to endorse or promote products derived
  18:/usr/local/CrossPack-AVR-20131216/avr/include/util/delay_basic.h ****      from this software without specific prior written permission.
  19:/usr/local/CrossPack-AVR-20131216/avr/include/util/delay_basic.h **** 
  20:/usr/local/CrossPack-AVR-20131216/avr/include/util/delay_basic.h ****   THIS SOFTWARE IS PROVIDED BY THE COPYRIGHT HOLDERS AND CONTRIBUTORS "AS IS"
  21:/usr/local/CrossPack-AVR-20131216/avr/include/util/delay_basic.h ****   AND ANY EXPRESS OR IMPLIED WARRANTIES, INCLUDING, BUT NOT LIMITED TO, THE
  22:/usr/local/CrossPack-AVR-20131216/avr/include/util/delay_basic.h ****   IMPLIED WARRANTIES OF MERCHANTABILITY AND FITNESS FOR A PARTICULAR PURPOSE
  23:/usr/local/CrossPack-AVR-20131216/avr/include/util/delay_basic.h ****   ARE DISCLAIMED. IN NO EVENT SHALL THE COPYRIGHT OWNER OR CONTRIBUTORS BE
  24:/usr/local/CrossPack-AVR-20131216/avr/include/util/delay_basic.h ****   LIABLE FOR ANY DIRECT, INDIRECT, INCIDENTAL, SPECIAL, EXEMPLARY, OR
  25:/usr/local/CrossPack-AVR-20131216/avr/include/util/delay_basic.h ****   CONSEQUENTIAL DAMAGES (INCLUDING, BUT NOT LIMITED TO, PROCUREMENT OF
  26:/usr/local/CrossPack-AVR-20131216/avr/include/util/delay_basic.h ****   SUBSTITUTE GOODS OR SERVICES; LOSS OF USE, DATA, OR PROFITS; OR BUSINESS
  27:/usr/local/CrossPack-AVR-20131216/avr/include/util/delay_basic.h ****   INTERRUPTION) HOWEVER CAUSED AND ON ANY THEORY OF LIABILITY, WHETHER IN
  28:/usr/local/CrossPack-AVR-20131216/avr/include/util/delay_basic.h ****   CONTRACT, STRICT LIABILITY, OR TORT (INCLUDING NEGLIGENCE OR OTHERWISE)
  29:/usr/local/CrossPack-AVR-20131216/avr/include/util/delay_basic.h ****   ARISING IN ANY WAY OUT OF THE USE OF THIS SOFTWARE, EVEN IF ADVISED OF THE
  30:/usr/local/CrossPack-AVR-20131216/avr/include/util/delay_basic.h ****   POSSIBILITY OF SUCH DAMAGE. */
  31:/usr/local/CrossPack-AVR-20131216/avr/include/util/delay_basic.h **** 
  32:/usr/local/CrossPack-AVR-20131216/avr/include/util/delay_basic.h **** /* $Id$ */
  33:/usr/local/CrossPack-AVR-20131216/avr/include/util/delay_basic.h **** 
  34:/usr/local/CrossPack-AVR-20131216/avr/include/util/delay_basic.h **** #ifndef _UTIL_DELAY_BASIC_H_
  35:/usr/local/CrossPack-AVR-20131216/avr/include/util/delay_basic.h **** #define _UTIL_DELAY_BASIC_H_ 1
  36:/usr/local/CrossPack-AVR-20131216/avr/include/util/delay_basic.h **** 
  37:/usr/local/CrossPack-AVR-20131216/avr/include/util/delay_basic.h **** #include <inttypes.h>
  38:/usr/local/CrossPack-AVR-20131216/avr/include/util/delay_basic.h **** 
  39:/usr/local/CrossPack-AVR-20131216/avr/include/util/delay_basic.h **** #if !defined(__DOXYGEN__)
GAS LISTING /var/folders/86/8ymzt0g934z5dpmztl89nd000000gn/T//ccd3mB82.s 			page 3


  40:/usr/local/CrossPack-AVR-20131216/avr/include/util/delay_basic.h **** static inline void _delay_loop_1(uint8_t __count) __attribute__((always_inline));
  41:/usr/local/CrossPack-AVR-20131216/avr/include/util/delay_basic.h **** static inline void _delay_loop_2(uint16_t __count) __attribute__((always_inline));
  42:/usr/local/CrossPack-AVR-20131216/avr/include/util/delay_basic.h **** #endif
  43:/usr/local/CrossPack-AVR-20131216/avr/include/util/delay_basic.h **** 
  44:/usr/local/CrossPack-AVR-20131216/avr/include/util/delay_basic.h **** /** \file */
  45:/usr/local/CrossPack-AVR-20131216/avr/include/util/delay_basic.h **** /** \defgroup util_delay_basic <util/delay_basic.h>: Basic busy-wait delay loops
  46:/usr/local/CrossPack-AVR-20131216/avr/include/util/delay_basic.h ****     \code
  47:/usr/local/CrossPack-AVR-20131216/avr/include/util/delay_basic.h ****     #include <util/delay_basic.h>
  48:/usr/local/CrossPack-AVR-20131216/avr/include/util/delay_basic.h ****     \endcode
  49:/usr/local/CrossPack-AVR-20131216/avr/include/util/delay_basic.h **** 
  50:/usr/local/CrossPack-AVR-20131216/avr/include/util/delay_basic.h ****     The functions in this header file implement simple delay loops
  51:/usr/local/CrossPack-AVR-20131216/avr/include/util/delay_basic.h ****     that perform a busy-waiting.  They are typically used to
  52:/usr/local/CrossPack-AVR-20131216/avr/include/util/delay_basic.h ****     facilitate short delays in the program execution.  They are
  53:/usr/local/CrossPack-AVR-20131216/avr/include/util/delay_basic.h ****     implemented as count-down loops with a well-known CPU cycle
  54:/usr/local/CrossPack-AVR-20131216/avr/include/util/delay_basic.h ****     count per loop iteration.  As such, no other processing can
  55:/usr/local/CrossPack-AVR-20131216/avr/include/util/delay_basic.h ****     occur simultaneously.  It should be kept in mind that the
  56:/usr/local/CrossPack-AVR-20131216/avr/include/util/delay_basic.h ****     functions described here do not disable interrupts.
  57:/usr/local/CrossPack-AVR-20131216/avr/include/util/delay_basic.h **** 
  58:/usr/local/CrossPack-AVR-20131216/avr/include/util/delay_basic.h ****     In general, for long delays, the use of hardware timers is
  59:/usr/local/CrossPack-AVR-20131216/avr/include/util/delay_basic.h ****     much preferrable, as they free the CPU, and allow for
  60:/usr/local/CrossPack-AVR-20131216/avr/include/util/delay_basic.h ****     concurrent processing of other events while the timer is
  61:/usr/local/CrossPack-AVR-20131216/avr/include/util/delay_basic.h ****     running.  However, in particular for very short delays, the
  62:/usr/local/CrossPack-AVR-20131216/avr/include/util/delay_basic.h ****     overhead of setting up a hardware timer is too much compared
  63:/usr/local/CrossPack-AVR-20131216/avr/include/util/delay_basic.h ****     to the overall delay time.
  64:/usr/local/CrossPack-AVR-20131216/avr/include/util/delay_basic.h **** 
  65:/usr/local/CrossPack-AVR-20131216/avr/include/util/delay_basic.h ****     Two inline functions are provided for the actual delay algorithms.
  66:/usr/local/CrossPack-AVR-20131216/avr/include/util/delay_basic.h **** 
  67:/usr/local/CrossPack-AVR-20131216/avr/include/util/delay_basic.h **** */
  68:/usr/local/CrossPack-AVR-20131216/avr/include/util/delay_basic.h **** 
  69:/usr/local/CrossPack-AVR-20131216/avr/include/util/delay_basic.h **** /** \ingroup util_delay_basic
  70:/usr/local/CrossPack-AVR-20131216/avr/include/util/delay_basic.h **** 
  71:/usr/local/CrossPack-AVR-20131216/avr/include/util/delay_basic.h ****     Delay loop using an 8-bit counter \c __count, so up to 256
  72:/usr/local/CrossPack-AVR-20131216/avr/include/util/delay_basic.h ****     iterations are possible.  (The value 256 would have to be passed
  73:/usr/local/CrossPack-AVR-20131216/avr/include/util/delay_basic.h ****     as 0.)  The loop executes three CPU cycles per iteration, not
  74:/usr/local/CrossPack-AVR-20131216/avr/include/util/delay_basic.h ****     including the overhead the compiler needs to setup the counter
  75:/usr/local/CrossPack-AVR-20131216/avr/include/util/delay_basic.h ****     register.
  76:/usr/local/CrossPack-AVR-20131216/avr/include/util/delay_basic.h **** 
  77:/usr/local/CrossPack-AVR-20131216/avr/include/util/delay_basic.h ****     Thus, at a CPU speed of 1 MHz, delays of up to 768 microseconds
  78:/usr/local/CrossPack-AVR-20131216/avr/include/util/delay_basic.h ****     can be achieved.
  79:/usr/local/CrossPack-AVR-20131216/avr/include/util/delay_basic.h **** */
  80:/usr/local/CrossPack-AVR-20131216/avr/include/util/delay_basic.h **** void
  81:/usr/local/CrossPack-AVR-20131216/avr/include/util/delay_basic.h **** _delay_loop_1(uint8_t __count)
  82:/usr/local/CrossPack-AVR-20131216/avr/include/util/delay_basic.h **** {
  83:/usr/local/CrossPack-AVR-20131216/avr/include/util/delay_basic.h **** 	__asm__ volatile (
  84:/usr/local/CrossPack-AVR-20131216/avr/include/util/delay_basic.h **** 		"1: dec %0" "\n\t"
  85:/usr/local/CrossPack-AVR-20131216/avr/include/util/delay_basic.h **** 		"brne 1b"
  86:/usr/local/CrossPack-AVR-20131216/avr/include/util/delay_basic.h **** 		: "=r" (__count)
  87:/usr/local/CrossPack-AVR-20131216/avr/include/util/delay_basic.h **** 		: "0" (__count)
  88:/usr/local/CrossPack-AVR-20131216/avr/include/util/delay_basic.h **** 	);
  31               		.loc 2 88 0
  32 0008 84E0      		ldi r24,lo8(4)
  33               	/* #APP */
  34               	 ;  88 "/usr/local/CrossPack-AVR-20131216/avr/include/util/delay_basic.h" 1
  35 000a 8A95      		1: dec r24
  36 000c 01F4      		brne 1b
  37               	 ;  0 "" 2
  38               	.LVL3:
GAS LISTING /var/folders/86/8ymzt0g934z5dpmztl89nd000000gn/T//ccd3mB82.s 			page 4


  39               	/* #NOAPP */
  40               	.LBE41:
  41               	.LBE40:
  46:lcm_so1602dtr_m.cpp **** 	_delay_loop_1(4); // Laisser le temps à l'afficheur de comprendre EN
  47:lcm_so1602dtr_m.cpp **** 	*port &= ~_BV(LCM_EN);
  42               		.loc 1 47 0
  43 000e 8081      		ld r24,Z
  44 0010 8F7D      		andi r24,lo8(-33)
  45 0012 8083      		st Z,r24
  46 0014 0895      		ret
  47               		.cfi_endproc
  48               	.LFE7:
  49               		.size	_ZL12_lcm_fast_enPVh, .-_ZL12_lcm_fast_enPVh
  50               		.type	_ZL13_lcm_functionhhhhPVh.constprop.0, @function
  51               	_ZL13_lcm_functionhhhhPVh.constprop.0:
  52               	.LFB19:
  48:lcm_so1602dtr_m.cpp **** }
  49:lcm_so1602dtr_m.cpp **** 
  50:lcm_so1602dtr_m.cpp **** /**
  51:lcm_so1602dtr_m.cpp ****  * Envoie une fonction à l'afficheur LCD.
  52:lcm_so1602dtr_m.cpp ****  *
  53:lcm_so1602dtr_m.cpp ****  * @param rs		Valeur de la ligne RS
  54:lcm_so1602dtr_m.cpp ****  * @param rw		Valeur de la ligne R/W
  55:lcm_so1602dtr_m.cpp ****  * @param db		Valeur du `data bus' (DB7-DB0)
  56:lcm_so1602dtr_m.cpp ****  * @param w_10us	Nombre de (10 µs) à attendre après l'envoi
  57:lcm_so1602dtr_m.cpp ****  * @param port		Port AVR occupé par l'afficheur
  58:lcm_so1602dtr_m.cpp ****  */
  59:lcm_so1602dtr_m.cpp **** static void _lcm_function(const uint8_t rs, const uint8_t rw,
  53               		.loc 1 59 0
  54               		.cfi_startproc
  55               	.LVL4:
  56 0016 EF92      		push r14
  57               	.LCFI0:
  58               		.cfi_def_cfa_offset 3
  59               		.cfi_offset 14, -2
  60 0018 FF92      		push r15
  61               	.LCFI1:
  62               		.cfi_def_cfa_offset 4
  63               		.cfi_offset 15, -3
  64 001a 0F93      		push r16
  65               	.LCFI2:
  66               		.cfi_def_cfa_offset 5
  67               		.cfi_offset 16, -4
  68 001c 1F93      		push r17
  69               	.LCFI3:
  70               		.cfi_def_cfa_offset 6
  71               		.cfi_offset 17, -5
  72 001e CF93      		push r28
  73               	.LCFI4:
  74               		.cfi_def_cfa_offset 7
  75               		.cfi_offset 28, -6
  76 0020 DF93      		push r29
  77               	.LCFI5:
  78               		.cfi_def_cfa_offset 8
  79               		.cfi_offset 29, -7
  80 0022 00D0      		rcall .
  81               	.LCFI6:
GAS LISTING /var/folders/86/8ymzt0g934z5dpmztl89nd000000gn/T//ccd3mB82.s 			page 5


  82               		.cfi_def_cfa_offset 10
  83 0024 CDB7      		in r28,__SP_L__
  84 0026 DEB7      		in r29,__SP_H__
  85               	.LCFI7:
  86               		.cfi_def_cfa_register 28
  87               	/* prologue: function */
  88               	/* frame size = 2 */
  89               	/* stack size = 8 */
  90               	.L__stack_usage = 8
  91 0028 7901      		movw r14,r18
  92               	.LVL5:
  93               	.LBB42:
  60:lcm_so1602dtr_m.cpp ****                           const uint8_t db, const uint8_t w_10us, volatile uint8_t* port) {
  61:lcm_so1602dtr_m.cpp **** 	uint8_t low_bits, high_bits, i;
  62:lcm_so1602dtr_m.cpp **** 	
  63:lcm_so1602dtr_m.cpp **** 	low_bits = ((db & 0x0f) << LCM_DB4) | (rs << LCM_RS) | (rw << LCM_RW);
  94               		.loc 1 63 0
  95 002a 90E8      		ldi r25,lo8(-128)
  96 002c 899F      		mul r24,r25
  97 002e 8001      		movw r16,r0
  98 0030 1124      		clr __zero_reg__
  99               	.LVL6:
 100               	.LBB43:
 101               	.LBB44:
  36:lcm_so1602dtr_m.cpp **** 	*port &= LCM_CL;
 102               		.loc 1 36 0
 103 0032 F901      		movw r30,r18
 104 0034 8081      		ld r24,Z
 105               	.LVL7:
 106 0036 8172      		andi r24,lo8(33)
 107 0038 8083      		st Z,r24
 108               	.LBE44:
 109               	.LBE43:
  64:lcm_so1602dtr_m.cpp **** 	high_bits = ((db >> 4) << LCM_DB4) | (rs << LCM_RS) | (rw << LCM_RW);
  65:lcm_so1602dtr_m.cpp **** 	
  66:lcm_so1602dtr_m.cpp **** 	_lcm_cp(port);
  67:lcm_so1602dtr_m.cpp **** 	*port |= high_bits;
 110               		.loc 1 67 0
 111 003a 8081      		ld r24,Z
  64:lcm_so1602dtr_m.cpp **** 	high_bits = ((db >> 4) << LCM_DB4) | (rs << LCM_RS) | (rw << LCM_RW);
 112               		.loc 1 64 0
 113 003c 262F      		mov r18,r22
 114               	.LVL8:
 115 003e 30E0      		ldi r19,0
 116 0040 94E0      		ldi r25,4
 117               		1:
 118 0042 3595      		asr r19
 119 0044 2795      		ror r18
 120 0046 9A95      		dec r25
 121 0048 01F4      		brne 1b
 122 004a 220F      		lsl r18
 123 004c 331F      		rol r19
 124 004e 202B      		or r18,r16
 125               		.loc 1 67 0
 126 0050 282B      		or r18,r24
 127 0052 2083      		st Z,r18
  68:lcm_so1602dtr_m.cpp **** 	_lcm_fast_en(port);
GAS LISTING /var/folders/86/8ymzt0g934z5dpmztl89nd000000gn/T//ccd3mB82.s 			page 6


 128               		.loc 1 68 0
 129 0054 C701      		movw r24,r14
 130 0056 4A83      		std Y+2,r20
 131 0058 6983      		std Y+1,r22
 132 005a 0E94 0000 		call _ZL12_lcm_fast_enPVh
 133               	.LVL9:
 134               	.LBB45:
 135               	.LBB46:
  36:lcm_so1602dtr_m.cpp **** 	*port &= LCM_CL;
 136               		.loc 1 36 0
 137 005e F701      		movw r30,r14
 138 0060 8081      		ld r24,Z
 139 0062 8172      		andi r24,lo8(33)
 140 0064 8083      		st Z,r24
 141               	.LBE46:
 142               	.LBE45:
  69:lcm_so1602dtr_m.cpp **** 	
  70:lcm_so1602dtr_m.cpp **** 	_lcm_cp(port);
  71:lcm_so1602dtr_m.cpp **** 	*port |= low_bits;
 143               		.loc 1 71 0
 144 0066 8081      		ld r24,Z
  63:lcm_so1602dtr_m.cpp **** 	low_bits = ((db & 0x0f) << LCM_DB4) | (rs << LCM_RS) | (rw << LCM_RW);
 145               		.loc 1 63 0
 146 0068 6981      		ldd r22,Y+1
 147 006a 6F70      		andi r22,lo8(15)
 148 006c 660F      		lsl r22
 149 006e 602B      		or r22,r16
 150               		.loc 1 71 0
 151 0070 682B      		or r22,r24
 152 0072 6083      		st Z,r22
  72:lcm_so1602dtr_m.cpp **** 	_lcm_fast_en(port);
 153               		.loc 1 72 0
 154 0074 C701      		movw r24,r14
 155 0076 0E94 0000 		call _ZL12_lcm_fast_enPVh
 156               	.LVL10:
  73:lcm_so1602dtr_m.cpp **** 	
  74:lcm_so1602dtr_m.cpp **** 	for (i = 0; i < w_10us; ++i) {
 157               		.loc 1 74 0
 158 007a 80E0      		ldi r24,0
 159 007c 4A81      		ldd r20,Y+2
 160               	.LVL11:
 161               	.L3:
 162 007e 8417      		cp r24,r20
 163 0080 01F0      		breq .L6
 164               	.LVL12:
 165               	.LBB47:
 166               	.LBB48:
 167               		.file 3 "/usr/local/CrossPack-AVR-20131216/avr/include/util/delay.h"
   1:/usr/local/CrossPack-AVR-20131216/avr/include/util/delay.h **** /* Copyright (c) 2002, Marek Michalkiewicz
   2:/usr/local/CrossPack-AVR-20131216/avr/include/util/delay.h ****    Copyright (c) 2004,2005,2007 Joerg Wunsch
   3:/usr/local/CrossPack-AVR-20131216/avr/include/util/delay.h ****    Copyright (c) 2007  Florin-Viorel Petrov
   4:/usr/local/CrossPack-AVR-20131216/avr/include/util/delay.h ****    All rights reserved.
   5:/usr/local/CrossPack-AVR-20131216/avr/include/util/delay.h **** 
   6:/usr/local/CrossPack-AVR-20131216/avr/include/util/delay.h ****    Redistribution and use in source and binary forms, with or without
   7:/usr/local/CrossPack-AVR-20131216/avr/include/util/delay.h ****    modification, are permitted provided that the following conditions are met:
   8:/usr/local/CrossPack-AVR-20131216/avr/include/util/delay.h **** 
   9:/usr/local/CrossPack-AVR-20131216/avr/include/util/delay.h ****    * Redistributions of source code must retain the above copyright
GAS LISTING /var/folders/86/8ymzt0g934z5dpmztl89nd000000gn/T//ccd3mB82.s 			page 7


  10:/usr/local/CrossPack-AVR-20131216/avr/include/util/delay.h ****      notice, this list of conditions and the following disclaimer.
  11:/usr/local/CrossPack-AVR-20131216/avr/include/util/delay.h **** 
  12:/usr/local/CrossPack-AVR-20131216/avr/include/util/delay.h ****    * Redistributions in binary form must reproduce the above copyright
  13:/usr/local/CrossPack-AVR-20131216/avr/include/util/delay.h ****      notice, this list of conditions and the following disclaimer in
  14:/usr/local/CrossPack-AVR-20131216/avr/include/util/delay.h ****      the documentation and/or other materials provided with the
  15:/usr/local/CrossPack-AVR-20131216/avr/include/util/delay.h ****      distribution.
  16:/usr/local/CrossPack-AVR-20131216/avr/include/util/delay.h **** 
  17:/usr/local/CrossPack-AVR-20131216/avr/include/util/delay.h ****    * Neither the name of the copyright holders nor the names of
  18:/usr/local/CrossPack-AVR-20131216/avr/include/util/delay.h ****      contributors may be used to endorse or promote products derived
  19:/usr/local/CrossPack-AVR-20131216/avr/include/util/delay.h ****      from this software without specific prior written permission.
  20:/usr/local/CrossPack-AVR-20131216/avr/include/util/delay.h **** 
  21:/usr/local/CrossPack-AVR-20131216/avr/include/util/delay.h ****   THIS SOFTWARE IS PROVIDED BY THE COPYRIGHT HOLDERS AND CONTRIBUTORS "AS IS"
  22:/usr/local/CrossPack-AVR-20131216/avr/include/util/delay.h ****   AND ANY EXPRESS OR IMPLIED WARRANTIES, INCLUDING, BUT NOT LIMITED TO, THE
  23:/usr/local/CrossPack-AVR-20131216/avr/include/util/delay.h ****   IMPLIED WARRANTIES OF MERCHANTABILITY AND FITNESS FOR A PARTICULAR PURPOSE
  24:/usr/local/CrossPack-AVR-20131216/avr/include/util/delay.h ****   ARE DISCLAIMED. IN NO EVENT SHALL THE COPYRIGHT OWNER OR CONTRIBUTORS BE
  25:/usr/local/CrossPack-AVR-20131216/avr/include/util/delay.h ****   LIABLE FOR ANY DIRECT, INDIRECT, INCIDENTAL, SPECIAL, EXEMPLARY, OR
  26:/usr/local/CrossPack-AVR-20131216/avr/include/util/delay.h ****   CONSEQUENTIAL DAMAGES (INCLUDING, BUT NOT LIMITED TO, PROCUREMENT OF
  27:/usr/local/CrossPack-AVR-20131216/avr/include/util/delay.h ****   SUBSTITUTE GOODS OR SERVICES; LOSS OF USE, DATA, OR PROFITS; OR BUSINESS
  28:/usr/local/CrossPack-AVR-20131216/avr/include/util/delay.h ****   INTERRUPTION) HOWEVER CAUSED AND ON ANY THEORY OF LIABILITY, WHETHER IN
  29:/usr/local/CrossPack-AVR-20131216/avr/include/util/delay.h ****   CONTRACT, STRICT LIABILITY, OR TORT (INCLUDING NEGLIGENCE OR OTHERWISE)
  30:/usr/local/CrossPack-AVR-20131216/avr/include/util/delay.h ****   ARISING IN ANY WAY OUT OF THE USE OF THIS SOFTWARE, EVEN IF ADVISED OF THE
  31:/usr/local/CrossPack-AVR-20131216/avr/include/util/delay.h ****   POSSIBILITY OF SUCH DAMAGE. */
  32:/usr/local/CrossPack-AVR-20131216/avr/include/util/delay.h **** 
  33:/usr/local/CrossPack-AVR-20131216/avr/include/util/delay.h **** /* $Id$ */
  34:/usr/local/CrossPack-AVR-20131216/avr/include/util/delay.h **** 
  35:/usr/local/CrossPack-AVR-20131216/avr/include/util/delay.h **** #ifndef _UTIL_DELAY_H_
  36:/usr/local/CrossPack-AVR-20131216/avr/include/util/delay.h **** #define _UTIL_DELAY_H_ 1
  37:/usr/local/CrossPack-AVR-20131216/avr/include/util/delay.h **** 
  38:/usr/local/CrossPack-AVR-20131216/avr/include/util/delay.h **** #ifndef __HAS_DELAY_CYCLES
  39:/usr/local/CrossPack-AVR-20131216/avr/include/util/delay.h **** #define __HAS_DELAY_CYCLES 1
  40:/usr/local/CrossPack-AVR-20131216/avr/include/util/delay.h **** #endif
  41:/usr/local/CrossPack-AVR-20131216/avr/include/util/delay.h **** 
  42:/usr/local/CrossPack-AVR-20131216/avr/include/util/delay.h **** #include <inttypes.h>
  43:/usr/local/CrossPack-AVR-20131216/avr/include/util/delay.h **** #include <util/delay_basic.h>
  44:/usr/local/CrossPack-AVR-20131216/avr/include/util/delay.h **** #include <math.h>
  45:/usr/local/CrossPack-AVR-20131216/avr/include/util/delay.h **** 
  46:/usr/local/CrossPack-AVR-20131216/avr/include/util/delay.h **** /** \file */
  47:/usr/local/CrossPack-AVR-20131216/avr/include/util/delay.h **** /** \defgroup util_delay <util/delay.h>: Convenience functions for busy-wait delay loops
  48:/usr/local/CrossPack-AVR-20131216/avr/include/util/delay.h ****     \code
  49:/usr/local/CrossPack-AVR-20131216/avr/include/util/delay.h ****     #define F_CPU 1000000UL  // 1 MHz
  50:/usr/local/CrossPack-AVR-20131216/avr/include/util/delay.h ****     //#define F_CPU 14.7456E6
  51:/usr/local/CrossPack-AVR-20131216/avr/include/util/delay.h ****     #include <util/delay.h>
  52:/usr/local/CrossPack-AVR-20131216/avr/include/util/delay.h ****     \endcode
  53:/usr/local/CrossPack-AVR-20131216/avr/include/util/delay.h **** 
  54:/usr/local/CrossPack-AVR-20131216/avr/include/util/delay.h ****     \note As an alternative method, it is possible to pass the
  55:/usr/local/CrossPack-AVR-20131216/avr/include/util/delay.h ****     F_CPU macro down to the compiler from the Makefile.
  56:/usr/local/CrossPack-AVR-20131216/avr/include/util/delay.h ****     Obviously, in that case, no \c \#define statement should be
  57:/usr/local/CrossPack-AVR-20131216/avr/include/util/delay.h ****     used.
  58:/usr/local/CrossPack-AVR-20131216/avr/include/util/delay.h **** 
  59:/usr/local/CrossPack-AVR-20131216/avr/include/util/delay.h ****     The functions in this header file are wrappers around the basic
  60:/usr/local/CrossPack-AVR-20131216/avr/include/util/delay.h ****     busy-wait functions from <util/delay_basic.h>.  They are meant as
  61:/usr/local/CrossPack-AVR-20131216/avr/include/util/delay.h ****     convenience functions where actual time values can be specified
  62:/usr/local/CrossPack-AVR-20131216/avr/include/util/delay.h ****     rather than a number of cycles to wait for.  The idea behind is
  63:/usr/local/CrossPack-AVR-20131216/avr/include/util/delay.h ****     that compile-time constant expressions will be eliminated by
  64:/usr/local/CrossPack-AVR-20131216/avr/include/util/delay.h ****     compiler optimization so floating-point expressions can be used
  65:/usr/local/CrossPack-AVR-20131216/avr/include/util/delay.h ****     to calculate the number of delay cycles needed based on the CPU
  66:/usr/local/CrossPack-AVR-20131216/avr/include/util/delay.h ****     frequency passed by the macro F_CPU.
GAS LISTING /var/folders/86/8ymzt0g934z5dpmztl89nd000000gn/T//ccd3mB82.s 			page 8


  67:/usr/local/CrossPack-AVR-20131216/avr/include/util/delay.h **** 
  68:/usr/local/CrossPack-AVR-20131216/avr/include/util/delay.h ****     \note In order for these functions to work as intended, compiler
  69:/usr/local/CrossPack-AVR-20131216/avr/include/util/delay.h ****     optimizations <em>must</em> be enabled, and the delay time
  70:/usr/local/CrossPack-AVR-20131216/avr/include/util/delay.h ****     <em>must</em> be an expression that is a known constant at
  71:/usr/local/CrossPack-AVR-20131216/avr/include/util/delay.h ****     compile-time.  If these requirements are not met, the resulting
  72:/usr/local/CrossPack-AVR-20131216/avr/include/util/delay.h ****     delay will be much longer (and basically unpredictable), and
  73:/usr/local/CrossPack-AVR-20131216/avr/include/util/delay.h ****     applications that otherwise do not use floating-point calculations
  74:/usr/local/CrossPack-AVR-20131216/avr/include/util/delay.h ****     will experience severe code bloat by the floating-point library
  75:/usr/local/CrossPack-AVR-20131216/avr/include/util/delay.h ****     routines linked into the application.
  76:/usr/local/CrossPack-AVR-20131216/avr/include/util/delay.h **** 
  77:/usr/local/CrossPack-AVR-20131216/avr/include/util/delay.h ****     The functions available allow the specification of microsecond, and
  78:/usr/local/CrossPack-AVR-20131216/avr/include/util/delay.h ****     millisecond delays directly, using the application-supplied macro
  79:/usr/local/CrossPack-AVR-20131216/avr/include/util/delay.h ****     F_CPU as the CPU clock frequency (in Hertz).
  80:/usr/local/CrossPack-AVR-20131216/avr/include/util/delay.h **** 
  81:/usr/local/CrossPack-AVR-20131216/avr/include/util/delay.h **** */
  82:/usr/local/CrossPack-AVR-20131216/avr/include/util/delay.h **** 
  83:/usr/local/CrossPack-AVR-20131216/avr/include/util/delay.h **** #if !defined(__DOXYGEN__)
  84:/usr/local/CrossPack-AVR-20131216/avr/include/util/delay.h **** static inline void _delay_us(double __us) __attribute__((always_inline));
  85:/usr/local/CrossPack-AVR-20131216/avr/include/util/delay.h **** static inline void _delay_ms(double __ms) __attribute__((always_inline));
  86:/usr/local/CrossPack-AVR-20131216/avr/include/util/delay.h **** #endif
  87:/usr/local/CrossPack-AVR-20131216/avr/include/util/delay.h **** 
  88:/usr/local/CrossPack-AVR-20131216/avr/include/util/delay.h **** #ifndef F_CPU
  89:/usr/local/CrossPack-AVR-20131216/avr/include/util/delay.h **** /* prevent compiler error by supplying a default */
  90:/usr/local/CrossPack-AVR-20131216/avr/include/util/delay.h **** # warning "F_CPU not defined for <util/delay.h>"
  91:/usr/local/CrossPack-AVR-20131216/avr/include/util/delay.h **** # define F_CPU 1000000UL
  92:/usr/local/CrossPack-AVR-20131216/avr/include/util/delay.h **** #endif
  93:/usr/local/CrossPack-AVR-20131216/avr/include/util/delay.h **** 
  94:/usr/local/CrossPack-AVR-20131216/avr/include/util/delay.h **** #ifndef __OPTIMIZE__
  95:/usr/local/CrossPack-AVR-20131216/avr/include/util/delay.h **** # warning "Compiler optimizations disabled; functions from <util/delay.h> won't work as designed"
  96:/usr/local/CrossPack-AVR-20131216/avr/include/util/delay.h **** #endif
  97:/usr/local/CrossPack-AVR-20131216/avr/include/util/delay.h **** 
  98:/usr/local/CrossPack-AVR-20131216/avr/include/util/delay.h **** #if __HAS_DELAY_CYCLES && defined(__OPTIMIZE__) && \
  99:/usr/local/CrossPack-AVR-20131216/avr/include/util/delay.h ****   !defined(__DELAY_BACKWARD_COMPATIBLE__) &&	   \
 100:/usr/local/CrossPack-AVR-20131216/avr/include/util/delay.h ****   __STDC_HOSTED__
 101:/usr/local/CrossPack-AVR-20131216/avr/include/util/delay.h **** #  include <math.h>
 102:/usr/local/CrossPack-AVR-20131216/avr/include/util/delay.h **** #endif
 103:/usr/local/CrossPack-AVR-20131216/avr/include/util/delay.h **** 
 104:/usr/local/CrossPack-AVR-20131216/avr/include/util/delay.h **** /**
 105:/usr/local/CrossPack-AVR-20131216/avr/include/util/delay.h ****    \ingroup util_delay
 106:/usr/local/CrossPack-AVR-20131216/avr/include/util/delay.h **** 
 107:/usr/local/CrossPack-AVR-20131216/avr/include/util/delay.h ****    Perform a delay of \c __ms milliseconds, using _delay_loop_2().
 108:/usr/local/CrossPack-AVR-20131216/avr/include/util/delay.h **** 
 109:/usr/local/CrossPack-AVR-20131216/avr/include/util/delay.h ****    The macro F_CPU is supposed to be defined to a
 110:/usr/local/CrossPack-AVR-20131216/avr/include/util/delay.h ****    constant defining the CPU clock frequency (in Hertz).
 111:/usr/local/CrossPack-AVR-20131216/avr/include/util/delay.h **** 
 112:/usr/local/CrossPack-AVR-20131216/avr/include/util/delay.h ****    The maximal possible delay is 262.14 ms / F_CPU in MHz.
 113:/usr/local/CrossPack-AVR-20131216/avr/include/util/delay.h **** 
 114:/usr/local/CrossPack-AVR-20131216/avr/include/util/delay.h ****    When the user request delay which exceed the maximum possible one,
 115:/usr/local/CrossPack-AVR-20131216/avr/include/util/delay.h ****    _delay_ms() provides a decreased resolution functionality. In this
 116:/usr/local/CrossPack-AVR-20131216/avr/include/util/delay.h ****    mode _delay_ms() will work with a resolution of 1/10 ms, providing
 117:/usr/local/CrossPack-AVR-20131216/avr/include/util/delay.h ****    delays up to 6.5535 seconds (independent from CPU frequency).  The
 118:/usr/local/CrossPack-AVR-20131216/avr/include/util/delay.h ****    user will not be informed about decreased resolution.
 119:/usr/local/CrossPack-AVR-20131216/avr/include/util/delay.h **** 
 120:/usr/local/CrossPack-AVR-20131216/avr/include/util/delay.h ****    If the avr-gcc toolchain has __builtin_avr_delay_cycles(unsigned long)
 121:/usr/local/CrossPack-AVR-20131216/avr/include/util/delay.h ****    support, maximal possible delay is 4294967.295 ms/ F_CPU in MHz. For
 122:/usr/local/CrossPack-AVR-20131216/avr/include/util/delay.h ****    values greater than the maximal possible delay, overflows results in
 123:/usr/local/CrossPack-AVR-20131216/avr/include/util/delay.h ****    no delay i.e., 0ms.
GAS LISTING /var/folders/86/8ymzt0g934z5dpmztl89nd000000gn/T//ccd3mB82.s 			page 9


 124:/usr/local/CrossPack-AVR-20131216/avr/include/util/delay.h **** 
 125:/usr/local/CrossPack-AVR-20131216/avr/include/util/delay.h ****    Conversion of __us into clock cycles may not always result in integer.
 126:/usr/local/CrossPack-AVR-20131216/avr/include/util/delay.h ****    By default, the clock cycles rounded up to next integer. This ensures that
 127:/usr/local/CrossPack-AVR-20131216/avr/include/util/delay.h ****    the user gets atleast __us microseconds of delay.
 128:/usr/local/CrossPack-AVR-20131216/avr/include/util/delay.h **** 
 129:/usr/local/CrossPack-AVR-20131216/avr/include/util/delay.h ****    Alternatively, user can define __DELAY_ROUND_DOWN__ and __DELAY_ROUND_CLOSEST__
 130:/usr/local/CrossPack-AVR-20131216/avr/include/util/delay.h ****    to round down and round to closest integer.
 131:/usr/local/CrossPack-AVR-20131216/avr/include/util/delay.h **** 
 132:/usr/local/CrossPack-AVR-20131216/avr/include/util/delay.h ****    Note: The new implementation of _delay_ms(double __ms) with 
 133:/usr/local/CrossPack-AVR-20131216/avr/include/util/delay.h ****     __builtin_avr_delay_cycles(unsigned long) support is not backward compatible. 
 134:/usr/local/CrossPack-AVR-20131216/avr/include/util/delay.h ****    User can define __DELAY_BACKWARD_COMPATIBLE__ to get a backward compatible delay.
 135:/usr/local/CrossPack-AVR-20131216/avr/include/util/delay.h ****    Also, the backward compatible
 136:/usr/local/CrossPack-AVR-20131216/avr/include/util/delay.h ****    algorithm will be chosen if the code is compiled in a <em>freestanding
 137:/usr/local/CrossPack-AVR-20131216/avr/include/util/delay.h ****    environment</em> (GCC option \c -ffreestanding), as the math functions
 138:/usr/local/CrossPack-AVR-20131216/avr/include/util/delay.h ****    required for rounding are not available to the compiler then.
 139:/usr/local/CrossPack-AVR-20131216/avr/include/util/delay.h **** 
 140:/usr/local/CrossPack-AVR-20131216/avr/include/util/delay.h ****  */
 141:/usr/local/CrossPack-AVR-20131216/avr/include/util/delay.h **** void
 142:/usr/local/CrossPack-AVR-20131216/avr/include/util/delay.h **** _delay_ms(double __ms)
 143:/usr/local/CrossPack-AVR-20131216/avr/include/util/delay.h **** {
 144:/usr/local/CrossPack-AVR-20131216/avr/include/util/delay.h **** 	double __tmp ; 
 145:/usr/local/CrossPack-AVR-20131216/avr/include/util/delay.h **** #if __HAS_DELAY_CYCLES && defined(__OPTIMIZE__) && \
 146:/usr/local/CrossPack-AVR-20131216/avr/include/util/delay.h ****   !defined(__DELAY_BACKWARD_COMPATIBLE__) &&	   \
 147:/usr/local/CrossPack-AVR-20131216/avr/include/util/delay.h ****   __STDC_HOSTED__
 148:/usr/local/CrossPack-AVR-20131216/avr/include/util/delay.h **** 	uint32_t __ticks_dc;
 149:/usr/local/CrossPack-AVR-20131216/avr/include/util/delay.h **** 	extern void __builtin_avr_delay_cycles(unsigned long);
 150:/usr/local/CrossPack-AVR-20131216/avr/include/util/delay.h **** 	__tmp = ((F_CPU) / 1e3) * __ms;
 151:/usr/local/CrossPack-AVR-20131216/avr/include/util/delay.h **** 
 152:/usr/local/CrossPack-AVR-20131216/avr/include/util/delay.h **** 	#if defined(__DELAY_ROUND_DOWN__)
 153:/usr/local/CrossPack-AVR-20131216/avr/include/util/delay.h **** 		__ticks_dc = (uint32_t)fabs(__tmp);
 154:/usr/local/CrossPack-AVR-20131216/avr/include/util/delay.h **** 
 155:/usr/local/CrossPack-AVR-20131216/avr/include/util/delay.h **** 	#elif defined(__DELAY_ROUND_CLOSEST__)
 156:/usr/local/CrossPack-AVR-20131216/avr/include/util/delay.h **** 		__ticks_dc = (uint32_t)(fabs(__tmp)+0.5);
 157:/usr/local/CrossPack-AVR-20131216/avr/include/util/delay.h **** 
 158:/usr/local/CrossPack-AVR-20131216/avr/include/util/delay.h **** 	#else
 159:/usr/local/CrossPack-AVR-20131216/avr/include/util/delay.h **** 		//round up by default
 160:/usr/local/CrossPack-AVR-20131216/avr/include/util/delay.h **** 		__ticks_dc = (uint32_t)(ceil(fabs(__tmp)));
 161:/usr/local/CrossPack-AVR-20131216/avr/include/util/delay.h **** 	#endif
 162:/usr/local/CrossPack-AVR-20131216/avr/include/util/delay.h **** 
 163:/usr/local/CrossPack-AVR-20131216/avr/include/util/delay.h **** 	__builtin_avr_delay_cycles(__ticks_dc);
 164:/usr/local/CrossPack-AVR-20131216/avr/include/util/delay.h **** 
 165:/usr/local/CrossPack-AVR-20131216/avr/include/util/delay.h **** #else
 166:/usr/local/CrossPack-AVR-20131216/avr/include/util/delay.h **** 	uint16_t __ticks;
 167:/usr/local/CrossPack-AVR-20131216/avr/include/util/delay.h **** 	__tmp = ((F_CPU) / 4e3) * __ms;
 168:/usr/local/CrossPack-AVR-20131216/avr/include/util/delay.h **** 	if (__tmp < 1.0)
 169:/usr/local/CrossPack-AVR-20131216/avr/include/util/delay.h **** 		__ticks = 1;
 170:/usr/local/CrossPack-AVR-20131216/avr/include/util/delay.h **** 	else if (__tmp > 65535)
 171:/usr/local/CrossPack-AVR-20131216/avr/include/util/delay.h **** 	{
 172:/usr/local/CrossPack-AVR-20131216/avr/include/util/delay.h **** 		//	__ticks = requested delay in 1/10 ms
 173:/usr/local/CrossPack-AVR-20131216/avr/include/util/delay.h **** 		__ticks = (uint16_t) (__ms * 10.0);
 174:/usr/local/CrossPack-AVR-20131216/avr/include/util/delay.h **** 		while(__ticks)
 175:/usr/local/CrossPack-AVR-20131216/avr/include/util/delay.h **** 		{
 176:/usr/local/CrossPack-AVR-20131216/avr/include/util/delay.h **** 			// wait 1/10 ms
 177:/usr/local/CrossPack-AVR-20131216/avr/include/util/delay.h **** 			_delay_loop_2(((F_CPU) / 4e3) / 10);
 178:/usr/local/CrossPack-AVR-20131216/avr/include/util/delay.h **** 			__ticks --;
 179:/usr/local/CrossPack-AVR-20131216/avr/include/util/delay.h **** 		}
 180:/usr/local/CrossPack-AVR-20131216/avr/include/util/delay.h **** 		return;
GAS LISTING /var/folders/86/8ymzt0g934z5dpmztl89nd000000gn/T//ccd3mB82.s 			page 10


 181:/usr/local/CrossPack-AVR-20131216/avr/include/util/delay.h **** 	}
 182:/usr/local/CrossPack-AVR-20131216/avr/include/util/delay.h **** 	else
 183:/usr/local/CrossPack-AVR-20131216/avr/include/util/delay.h **** 		__ticks = (uint16_t)__tmp;
 184:/usr/local/CrossPack-AVR-20131216/avr/include/util/delay.h **** 	_delay_loop_2(__ticks);
 185:/usr/local/CrossPack-AVR-20131216/avr/include/util/delay.h **** #endif
 186:/usr/local/CrossPack-AVR-20131216/avr/include/util/delay.h **** }
 187:/usr/local/CrossPack-AVR-20131216/avr/include/util/delay.h **** 
 188:/usr/local/CrossPack-AVR-20131216/avr/include/util/delay.h **** /**
 189:/usr/local/CrossPack-AVR-20131216/avr/include/util/delay.h ****    \ingroup util_delay
 190:/usr/local/CrossPack-AVR-20131216/avr/include/util/delay.h **** 
 191:/usr/local/CrossPack-AVR-20131216/avr/include/util/delay.h ****    Perform a delay of \c __us microseconds, using _delay_loop_1().
 192:/usr/local/CrossPack-AVR-20131216/avr/include/util/delay.h **** 
 193:/usr/local/CrossPack-AVR-20131216/avr/include/util/delay.h ****    The macro F_CPU is supposed to be defined to a
 194:/usr/local/CrossPack-AVR-20131216/avr/include/util/delay.h ****    constant defining the CPU clock frequency (in Hertz).
 195:/usr/local/CrossPack-AVR-20131216/avr/include/util/delay.h **** 
 196:/usr/local/CrossPack-AVR-20131216/avr/include/util/delay.h ****    The maximal possible delay is 768 us / F_CPU in MHz.
 197:/usr/local/CrossPack-AVR-20131216/avr/include/util/delay.h **** 
 198:/usr/local/CrossPack-AVR-20131216/avr/include/util/delay.h ****    If the user requests a delay greater than the maximal possible one,
 199:/usr/local/CrossPack-AVR-20131216/avr/include/util/delay.h ****    _delay_us() will automatically call _delay_ms() instead.  The user
 200:/usr/local/CrossPack-AVR-20131216/avr/include/util/delay.h ****    will not be informed about this case.
 201:/usr/local/CrossPack-AVR-20131216/avr/include/util/delay.h **** 
 202:/usr/local/CrossPack-AVR-20131216/avr/include/util/delay.h ****    If the avr-gcc toolchain has __builtin_avr_delay_cycles(unsigned long)
 203:/usr/local/CrossPack-AVR-20131216/avr/include/util/delay.h ****    support, maximal possible delay is 4294967.295 us/ F_CPU in MHz. For
 204:/usr/local/CrossPack-AVR-20131216/avr/include/util/delay.h ****    values greater than the maximal possible delay, overflow results in
 205:/usr/local/CrossPack-AVR-20131216/avr/include/util/delay.h ****    no delay i.e., 0us.
 206:/usr/local/CrossPack-AVR-20131216/avr/include/util/delay.h ****   
 207:/usr/local/CrossPack-AVR-20131216/avr/include/util/delay.h ****    Conversion of __us into clock cycles may not always result in integer.
 208:/usr/local/CrossPack-AVR-20131216/avr/include/util/delay.h ****    By default, the clock cycles rounded up to next integer. This ensures that
 209:/usr/local/CrossPack-AVR-20131216/avr/include/util/delay.h ****    the user gets atleast __us microseconds of delay.
 210:/usr/local/CrossPack-AVR-20131216/avr/include/util/delay.h **** 
 211:/usr/local/CrossPack-AVR-20131216/avr/include/util/delay.h ****    Alternatively, user can define __DELAY_ROUND_DOWN__ and __DELAY_ROUND_CLOSEST__
 212:/usr/local/CrossPack-AVR-20131216/avr/include/util/delay.h ****    to round down and round to closest integer.
 213:/usr/local/CrossPack-AVR-20131216/avr/include/util/delay.h ****  
 214:/usr/local/CrossPack-AVR-20131216/avr/include/util/delay.h ****    Note: The new implementation of _delay_us(double __us) with 
 215:/usr/local/CrossPack-AVR-20131216/avr/include/util/delay.h ****     __builtin_avr_delay_cycles(unsigned long) support is not backward compatible.
 216:/usr/local/CrossPack-AVR-20131216/avr/include/util/delay.h ****    User can define __DELAY_BACKWARD_COMPATIBLE__ to get a backward compatible delay.
 217:/usr/local/CrossPack-AVR-20131216/avr/include/util/delay.h ****    Also, the backward compatible
 218:/usr/local/CrossPack-AVR-20131216/avr/include/util/delay.h ****    algorithm will be chosen if the code is compiled in a <em>freestanding
 219:/usr/local/CrossPack-AVR-20131216/avr/include/util/delay.h ****    environment</em> (GCC option \c -ffreestanding), as the math functions
 220:/usr/local/CrossPack-AVR-20131216/avr/include/util/delay.h ****    required for rounding are not available to the compiler then.
 221:/usr/local/CrossPack-AVR-20131216/avr/include/util/delay.h **** 
 222:/usr/local/CrossPack-AVR-20131216/avr/include/util/delay.h ****  */
 223:/usr/local/CrossPack-AVR-20131216/avr/include/util/delay.h **** void
 224:/usr/local/CrossPack-AVR-20131216/avr/include/util/delay.h **** _delay_us(double __us)
 225:/usr/local/CrossPack-AVR-20131216/avr/include/util/delay.h **** {
 226:/usr/local/CrossPack-AVR-20131216/avr/include/util/delay.h **** 	double __tmp ; 
 227:/usr/local/CrossPack-AVR-20131216/avr/include/util/delay.h **** #if __HAS_DELAY_CYCLES && defined(__OPTIMIZE__) && \
 228:/usr/local/CrossPack-AVR-20131216/avr/include/util/delay.h ****   !defined(__DELAY_BACKWARD_COMPATIBLE__) &&	   \
 229:/usr/local/CrossPack-AVR-20131216/avr/include/util/delay.h ****   __STDC_HOSTED__
 230:/usr/local/CrossPack-AVR-20131216/avr/include/util/delay.h **** 	uint32_t __ticks_dc;
 231:/usr/local/CrossPack-AVR-20131216/avr/include/util/delay.h **** 	extern void __builtin_avr_delay_cycles(unsigned long);
 232:/usr/local/CrossPack-AVR-20131216/avr/include/util/delay.h **** 	__tmp = ((F_CPU) / 1e6) * __us;
 233:/usr/local/CrossPack-AVR-20131216/avr/include/util/delay.h **** 
 234:/usr/local/CrossPack-AVR-20131216/avr/include/util/delay.h **** 	#if defined(__DELAY_ROUND_DOWN__)
 235:/usr/local/CrossPack-AVR-20131216/avr/include/util/delay.h **** 		__ticks_dc = (uint32_t)fabs(__tmp);
 236:/usr/local/CrossPack-AVR-20131216/avr/include/util/delay.h **** 
 237:/usr/local/CrossPack-AVR-20131216/avr/include/util/delay.h **** 	#elif defined(__DELAY_ROUND_CLOSEST__)
GAS LISTING /var/folders/86/8ymzt0g934z5dpmztl89nd000000gn/T//ccd3mB82.s 			page 11


 238:/usr/local/CrossPack-AVR-20131216/avr/include/util/delay.h **** 		__ticks_dc = (uint32_t)(fabs(__tmp)+0.5);
 239:/usr/local/CrossPack-AVR-20131216/avr/include/util/delay.h **** 
 240:/usr/local/CrossPack-AVR-20131216/avr/include/util/delay.h **** 	#else
 241:/usr/local/CrossPack-AVR-20131216/avr/include/util/delay.h **** 		//round up by default
 242:/usr/local/CrossPack-AVR-20131216/avr/include/util/delay.h **** 		__ticks_dc = (uint32_t)(ceil(fabs(__tmp)));
 243:/usr/local/CrossPack-AVR-20131216/avr/include/util/delay.h **** 	#endif
 244:/usr/local/CrossPack-AVR-20131216/avr/include/util/delay.h **** 
 245:/usr/local/CrossPack-AVR-20131216/avr/include/util/delay.h **** 	__builtin_avr_delay_cycles(__ticks_dc);
 168               		.loc 3 245 0
 169 0082 FAE1      		ldi r31,lo8(26)
 170 0084 FA95      		1: dec r31
 171 0086 01F4      		brne 1b
 172 0088 00C0      		rjmp .
 173               	.LBE48:
 174               	.LBE47:
 175               		.loc 1 74 0
 176 008a 8F5F      		subi r24,lo8(-(1))
 177               	.LVL13:
 178 008c 00C0      		rjmp .L3
 179               	.LVL14:
 180               	.L6:
 181               	/* epilogue start */
 182               	.LBE42:
  75:lcm_so1602dtr_m.cpp **** 		_delay_us(10.0);
  76:lcm_so1602dtr_m.cpp **** 	}
  77:lcm_so1602dtr_m.cpp **** }
 183               		.loc 1 77 0
 184 008e 0F90      		pop __tmp_reg__
 185 0090 0F90      		pop __tmp_reg__
 186 0092 DF91      		pop r29
 187 0094 CF91      		pop r28
 188 0096 1F91      		pop r17
 189 0098 0F91      		pop r16
 190               	.LVL15:
 191 009a FF90      		pop r15
 192 009c EF90      		pop r14
 193               	.LVL16:
 194 009e 0895      		ret
 195               		.cfi_endproc
 196               	.LFE19:
 197               		.size	_ZL13_lcm_functionhhhhPVh.constprop.0, .-_ZL13_lcm_functionhhhhPVh.constprop.0
 198               	.global	_Z15lcmd_disp_clearPVh
 199               		.type	_Z15lcmd_disp_clearPVh, @function
 200               	_Z15lcmd_disp_clearPVh:
 201               	.LFB9:
  78:lcm_so1602dtr_m.cpp **** 
  79:lcm_so1602dtr_m.cpp **** /**
  80:lcm_so1602dtr_m.cpp ****  * Pilote - efface l'affichage en cours avec le caractère 0x20.
  81:lcm_so1602dtr_m.cpp ****  *
  82:lcm_so1602dtr_m.cpp ****  * @param port		Port AVR occupé par l'afficheur
  83:lcm_so1602dtr_m.cpp ****  */
  84:lcm_so1602dtr_m.cpp **** void lcmd_disp_clear(volatile uint8_t* port) {
 202               		.loc 1 84 0
 203               		.cfi_startproc
 204               	.LVL17:
 205               	/* prologue: function */
 206               	/* frame size = 0 */
GAS LISTING /var/folders/86/8ymzt0g934z5dpmztl89nd000000gn/T//ccd3mB82.s 			page 12


 207               	/* stack size = 0 */
 208               	.L__stack_usage = 0
  85:lcm_so1602dtr_m.cpp **** 	_lcm_function(0, 0, 0x01, 164, port);
 209               		.loc 1 85 0
 210 00a0 9C01      		movw r18,r24
 211 00a2 44EA      		ldi r20,lo8(-92)
 212 00a4 61E0      		ldi r22,lo8(1)
 213 00a6 80E0      		ldi r24,0
 214               	.LVL18:
 215 00a8 0C94 0000 		jmp _ZL13_lcm_functionhhhhPVh.constprop.0
 216               	.LVL19:
 217               		.cfi_endproc
 218               	.LFE9:
 219               		.size	_Z15lcmd_disp_clearPVh, .-_Z15lcmd_disp_clearPVh
 220               	.global	_Z14lcmd_disp_homePVh
 221               		.type	_Z14lcmd_disp_homePVh, @function
 222               	_Z14lcmd_disp_homePVh:
 223               	.LFB10:
  86:lcm_so1602dtr_m.cpp **** }
  87:lcm_so1602dtr_m.cpp **** 
  88:lcm_so1602dtr_m.cpp **** /**
  89:lcm_so1602dtr_m.cpp ****  * Pilote - effectue un `home' sur l'afficheur.
  90:lcm_so1602dtr_m.cpp ****  *
  91:lcm_so1602dtr_m.cpp ****  * @param port		Port AVR occupé par l'afficheur
  92:lcm_so1602dtr_m.cpp ****  */
  93:lcm_so1602dtr_m.cpp **** void lcmd_disp_home(volatile uint8_t* port) {
 224               		.loc 1 93 0
 225               		.cfi_startproc
 226               	.LVL20:
 227               	/* prologue: function */
 228               	/* frame size = 0 */
 229               	/* stack size = 0 */
 230               	.L__stack_usage = 0
  94:lcm_so1602dtr_m.cpp **** 	_lcm_function(0, 0, 0x02, 164, port);
 231               		.loc 1 94 0
 232 00ac 9C01      		movw r18,r24
 233 00ae 44EA      		ldi r20,lo8(-92)
 234 00b0 62E0      		ldi r22,lo8(2)
 235 00b2 80E0      		ldi r24,0
 236               	.LVL21:
 237 00b4 0C94 0000 		jmp _ZL13_lcm_functionhhhhPVh.constprop.0
 238               	.LVL22:
 239               		.cfi_endproc
 240               	.LFE10:
 241               		.size	_Z14lcmd_disp_homePVh, .-_Z14lcmd_disp_homePVh
 242               	.global	_Z13lcmd_entry_smhhPVh
 243               		.type	_Z13lcmd_entry_smhhPVh, @function
 244               	_Z13lcmd_entry_smhhPVh:
 245               	.LFB11:
  95:lcm_so1602dtr_m.cpp **** }
  96:lcm_so1602dtr_m.cpp **** 
  97:lcm_so1602dtr_m.cpp **** /**
  98:lcm_so1602dtr_m.cpp ****  * Pilote - fixe le `Entry Mode' de l'afficheur.
  99:lcm_so1602dtr_m.cpp ****  *
 100:lcm_so1602dtr_m.cpp ****  * @param id		Incrémentation ou décrémentation des adresses
 101:lcm_so1602dtr_m.cpp ****  * @param s		Activation du décalage d'affichage
 102:lcm_so1602dtr_m.cpp ****  * @param port		Port AVR occupé par l'afficheur
GAS LISTING /var/folders/86/8ymzt0g934z5dpmztl89nd000000gn/T//ccd3mB82.s 			page 13


 103:lcm_so1602dtr_m.cpp ****  */
 104:lcm_so1602dtr_m.cpp **** void lcmd_entry_sm(const uint8_t id, const uint8_t s, volatile uint8_t* port) {
 246               		.loc 1 104 0
 247               		.cfi_startproc
 248               	.LVL23:
 249               	/* prologue: function */
 250               	/* frame size = 0 */
 251               	/* stack size = 0 */
 252               	.L__stack_usage = 0
 253 00b8 9A01      		movw r18,r20
 254               	.LVL24:
 255               	.LBB49:
 105:lcm_so1602dtr_m.cpp **** 	const uint8_t db = (0x04 | (id << 1) | s);
 256               		.loc 1 105 0
 257 00ba 6460      		ori r22,lo8(4)
 258               	.LVL25:
 259 00bc 880F      		lsl r24
 260               	.LVL26:
 261 00be 862B      		or r24,r22
 106:lcm_so1602dtr_m.cpp **** 	_lcm_function(0, 0, db, 4, port);
 262               		.loc 1 106 0
 263 00c0 44E0      		ldi r20,lo8(4)
 264               	.LVL27:
 265 00c2 682F      		mov r22,r24
 266 00c4 80E0      		ldi r24,0
 267 00c6 0C94 0000 		jmp _ZL13_lcm_functionhhhhPVh.constprop.0
 268               	.LVL28:
 269               	.LBE49:
 270               		.cfi_endproc
 271               	.LFE11:
 272               		.size	_Z13lcmd_entry_smhhPVh, .-_Z13lcmd_entry_smhhPVh
 273               	.global	_Z16lcmd_disp_on_offhhhPVh
 274               		.type	_Z16lcmd_disp_on_offhhhPVh, @function
 275               	_Z16lcmd_disp_on_offhhhPVh:
 276               	.LFB12:
 107:lcm_so1602dtr_m.cpp **** }
 108:lcm_so1602dtr_m.cpp **** 
 109:lcm_so1602dtr_m.cpp **** /**
 110:lcm_so1602dtr_m.cpp ****  * Pilote - ajuste certains paramètres d'affichage.
 111:lcm_so1602dtr_m.cpp ****  *
 112:lcm_so1602dtr_m.cpp ****  * @param d		Activation de l'affichage
 113:lcm_so1602dtr_m.cpp ****  * @param c		Activation du curseur
 114:lcm_so1602dtr_m.cpp ****  * @param b		Activation du `blink'
 115:lcm_so1602dtr_m.cpp ****  * @param port		Port AVR occupé par l'afficheur
 116:lcm_so1602dtr_m.cpp ****  */
 117:lcm_so1602dtr_m.cpp **** void lcmd_disp_on_off(const uint8_t d, const uint8_t c, const uint8_t b,
 118:lcm_so1602dtr_m.cpp ****                       volatile uint8_t* port) {
 277               		.loc 1 118 0
 278               		.cfi_startproc
 279               	.LVL29:
 280               	/* prologue: function */
 281               	/* frame size = 0 */
 282               	/* stack size = 0 */
 283               	.L__stack_usage = 0
 284               	.LBB50:
 119:lcm_so1602dtr_m.cpp **** 	const uint8_t db = (0x08 | (d << 2) | (c << 1) | b);
 285               		.loc 1 119 0
GAS LISTING /var/folders/86/8ymzt0g934z5dpmztl89nd000000gn/T//ccd3mB82.s 			page 14


 286 00ca 4860      		ori r20,lo8(8)
 287               	.LVL30:
 288 00cc 660F      		lsl r22
 289               	.LVL31:
 290 00ce 642B      		or r22,r20
 291 00d0 44E0      		ldi r20,lo8(4)
 292 00d2 849F      		mul r24,r20
 293 00d4 C001      		movw r24,r0
 294 00d6 1124      		clr __zero_reg__
 295               	.LVL32:
 296 00d8 682B      		or r22,r24
 120:lcm_so1602dtr_m.cpp **** 	_lcm_function(0, 0, db, 4, port);
 297               		.loc 1 120 0
 298 00da 44E0      		ldi r20,lo8(4)
 299 00dc 80E0      		ldi r24,0
 300 00de 0C94 0000 		jmp _ZL13_lcm_functionhhhhPVh.constprop.0
 301               	.LVL33:
 302               	.LBE50:
 303               		.cfi_endproc
 304               	.LFE12:
 305               		.size	_Z16lcmd_disp_on_offhhhPVh, .-_Z16lcmd_disp_on_offhhhPVh
 306               	.global	_Z19lcmd_disp_cur_shifthhPVh
 307               		.type	_Z19lcmd_disp_cur_shifthhPVh, @function
 308               	_Z19lcmd_disp_cur_shifthhPVh:
 309               	.LFB13:
 121:lcm_so1602dtr_m.cpp **** }
 122:lcm_so1602dtr_m.cpp **** 
 123:lcm_so1602dtr_m.cpp **** /**
 124:lcm_so1602dtr_m.cpp ****  * Pilote - décale l'affichage complet vers la gauche ou vers la droite.
 125:lcm_so1602dtr_m.cpp ****  *
 126:lcm_so1602dtr_m.cpp ****  * @param sc		Décaler l'affichage ou déplacer le curseur
 127:lcm_so1602dtr_m.cpp ****  * @param rl		Droite ou gauche
 128:lcm_so1602dtr_m.cpp ****  * @param port		Port AVR occupé par l'afficheur
 129:lcm_so1602dtr_m.cpp ****  */
 130:lcm_so1602dtr_m.cpp **** void lcmd_disp_cur_shift(const uint8_t sc, const uint8_t rl,
 131:lcm_so1602dtr_m.cpp ****                          volatile uint8_t* port) {
 310               		.loc 1 131 0
 311               		.cfi_startproc
 312               	.LVL34:
 313               	/* prologue: function */
 314               	/* frame size = 0 */
 315               	/* stack size = 0 */
 316               	.L__stack_usage = 0
 317 00e2 9A01      		movw r18,r20
 318               	.LVL35:
 319               	.LBB51:
 132:lcm_so1602dtr_m.cpp **** 	const uint8_t db = (0x10 | (sc << 3) | (rl << 2));
 320               		.loc 1 132 0
 321 00e4 44E0      		ldi r20,lo8(4)
 322               	.LVL36:
 323 00e6 649F      		mul r22,r20
 324 00e8 B001      		movw r22,r0
 325 00ea 1124      		clr __zero_reg__
 326               	.LVL37:
 327 00ec 6061      		ori r22,lo8(16)
 328 00ee 48E0      		ldi r20,lo8(8)
 329 00f0 849F      		mul r24,r20
GAS LISTING /var/folders/86/8ymzt0g934z5dpmztl89nd000000gn/T//ccd3mB82.s 			page 15


 330 00f2 C001      		movw r24,r0
 331 00f4 1124      		clr __zero_reg__
 332               	.LVL38:
 333 00f6 682B      		or r22,r24
 133:lcm_so1602dtr_m.cpp **** 	_lcm_function(0, 0, db, 4, port);
 334               		.loc 1 133 0
 335 00f8 44E0      		ldi r20,lo8(4)
 336 00fa 80E0      		ldi r24,0
 337 00fc 0C94 0000 		jmp _ZL13_lcm_functionhhhhPVh.constprop.0
 338               	.LVL39:
 339               	.LBE51:
 340               		.cfi_endproc
 341               	.LFE13:
 342               		.size	_Z19lcmd_disp_cur_shifthhPVh, .-_Z19lcmd_disp_cur_shifthhPVh
 343               	.global	_Z13lcmd_func_sethhPVh
 344               		.type	_Z13lcmd_func_sethhPVh, @function
 345               	_Z13lcmd_func_sethhPVh:
 346               	.LFB14:
 134:lcm_so1602dtr_m.cpp **** }
 135:lcm_so1602dtr_m.cpp **** 
 136:lcm_so1602dtr_m.cpp **** /**
 137:lcm_so1602dtr_m.cpp ****  * Pilote - fixe certains paramètres de l'afficheur LCD.
 138:lcm_so1602dtr_m.cpp ****  *
 139:lcm_so1602dtr_m.cpp ****  * @param dl		`Data Length' de 8 ou 4 bits
 140:lcm_so1602dtr_m.cpp ****  * @param n		`Dual Line' ou `Single Line'
 141:lcm_so1602dtr_m.cpp ****  * @param port		Port AVR occupé par l'afficheur
 142:lcm_so1602dtr_m.cpp ****  */
 143:lcm_so1602dtr_m.cpp **** void lcmd_func_set(const uint8_t dl, const uint8_t n, volatile uint8_t* port) {
 347               		.loc 1 143 0
 348               		.cfi_startproc
 349               	.LVL40:
 350               	/* prologue: function */
 351               	/* frame size = 0 */
 352               	/* stack size = 0 */
 353               	.L__stack_usage = 0
 354 0100 9A01      		movw r18,r20
 355               	.LVL41:
 356               	.LBB52:
 144:lcm_so1602dtr_m.cpp **** 	const uint8_t db = (0x20 | (dl << 4) | (n << 3));
 357               		.loc 1 144 0
 358 0102 48E0      		ldi r20,lo8(8)
 359               	.LVL42:
 360 0104 649F      		mul r22,r20
 361 0106 B001      		movw r22,r0
 362 0108 1124      		clr __zero_reg__
 363               	.LVL43:
 364 010a 6062      		ori r22,lo8(32)
 365 010c 40E1      		ldi r20,lo8(16)
 366 010e 849F      		mul r24,r20
 367 0110 C001      		movw r24,r0
 368 0112 1124      		clr __zero_reg__
 369               	.LVL44:
 370 0114 682B      		or r22,r24
 145:lcm_so1602dtr_m.cpp **** 	_lcm_function(0, 0, db, 4, port);
 371               		.loc 1 145 0
 372 0116 44E0      		ldi r20,lo8(4)
 373 0118 80E0      		ldi r24,0
GAS LISTING /var/folders/86/8ymzt0g934z5dpmztl89nd000000gn/T//ccd3mB82.s 			page 16


 374 011a 0C94 0000 		jmp _ZL13_lcm_functionhhhhPVh.constprop.0
 375               	.LVL45:
 376               	.LBE52:
 377               		.cfi_endproc
 378               	.LFE14:
 379               		.size	_Z13lcmd_func_sethhPVh, .-_Z13lcmd_func_sethhPVh
 380               	.global	_Z17lcmd_cgr_set_addrhPVh
 381               		.type	_Z17lcmd_cgr_set_addrhPVh, @function
 382               	_Z17lcmd_cgr_set_addrhPVh:
 383               	.LFB15:
 146:lcm_so1602dtr_m.cpp **** }
 147:lcm_so1602dtr_m.cpp **** 
 148:lcm_so1602dtr_m.cpp **** /**
 149:lcm_so1602dtr_m.cpp ****  * Pilote - fixe l'adresse en cours de la CG RAM.
 150:lcm_so1602dtr_m.cpp ****  *
 151:lcm_so1602dtr_m.cpp ****  * @param addr		Adresse de la CG RAM (0x00 à 0x3f)
 152:lcm_so1602dtr_m.cpp ****  * @param port		Port AVR occupé par l'afficheur
 153:lcm_so1602dtr_m.cpp ****  */
 154:lcm_so1602dtr_m.cpp **** void lcmd_cgr_set_addr(const uint8_t addr, volatile uint8_t* port) {
 384               		.loc 1 154 0
 385               		.cfi_startproc
 386               	.LVL46:
 387               	/* prologue: function */
 388               	/* frame size = 0 */
 389               	/* stack size = 0 */
 390               	.L__stack_usage = 0
 391 011e 9B01      		movw r18,r22
 392               	.LVL47:
 393               	.LBB53:
 155:lcm_so1602dtr_m.cpp **** 	const uint8_t db = (0x40 | addr) & ~_BV(7);
 394               		.loc 1 155 0
 395 0120 682F      		mov r22,r24
 396               	.LVL48:
 397 0122 6F73      		andi r22,lo8(63)
 398 0124 6064      		ori r22,lo8(64)
 399               	.LVL49:
 156:lcm_so1602dtr_m.cpp **** 	_lcm_function(0, 0, db, 4, port);
 400               		.loc 1 156 0
 401 0126 44E0      		ldi r20,lo8(4)
 402 0128 80E0      		ldi r24,0
 403               	.LVL50:
 404 012a 0C94 0000 		jmp _ZL13_lcm_functionhhhhPVh.constprop.0
 405               	.LVL51:
 406               	.LBE53:
 407               		.cfi_endproc
 408               	.LFE15:
 409               		.size	_Z17lcmd_cgr_set_addrhPVh, .-_Z17lcmd_cgr_set_addrhPVh
 410               	.global	_Z17lcmd_ddr_set_addrhPVh
 411               		.type	_Z17lcmd_ddr_set_addrhPVh, @function
 412               	_Z17lcmd_ddr_set_addrhPVh:
 413               	.LFB16:
 157:lcm_so1602dtr_m.cpp **** }
 158:lcm_so1602dtr_m.cpp **** 
 159:lcm_so1602dtr_m.cpp **** /**
 160:lcm_so1602dtr_m.cpp ****  * Pilote - fixe l'adresse en cours de la DD RAM.
 161:lcm_so1602dtr_m.cpp ****  *
 162:lcm_so1602dtr_m.cpp ****  * @param addr		Adresse de la DD RAM (0x00 à 0x27 et 0x40 à 0x67)
GAS LISTING /var/folders/86/8ymzt0g934z5dpmztl89nd000000gn/T//ccd3mB82.s 			page 17


 163:lcm_so1602dtr_m.cpp ****  * @param port		Port AVR occupé par l'afficheur
 164:lcm_so1602dtr_m.cpp ****  */
 165:lcm_so1602dtr_m.cpp **** void lcmd_ddr_set_addr(const uint8_t addr, volatile uint8_t* port) {
 414               		.loc 1 165 0
 415               		.cfi_startproc
 416               	.LVL52:
 417               	/* prologue: function */
 418               	/* frame size = 0 */
 419               	/* stack size = 0 */
 420               	.L__stack_usage = 0
 421 012e 9B01      		movw r18,r22
 422               	.LVL53:
 423               	.LBB54:
 166:lcm_so1602dtr_m.cpp **** 	const uint8_t db = (0x80 | addr);
 424               		.loc 1 166 0
 425 0130 682F      		mov r22,r24
 426               	.LVL54:
 427 0132 6068      		ori r22,lo8(-128)
 428               	.LVL55:
 167:lcm_so1602dtr_m.cpp **** 	_lcm_function(0, 0, db, 4, port);
 429               		.loc 1 167 0
 430 0134 44E0      		ldi r20,lo8(4)
 431 0136 80E0      		ldi r24,0
 432               	.LVL56:
 433 0138 0C94 0000 		jmp _ZL13_lcm_functionhhhhPVh.constprop.0
 434               	.LVL57:
 435               	.LBE54:
 436               		.cfi_endproc
 437               	.LFE16:
 438               		.size	_Z17lcmd_ddr_set_addrhPVh, .-_Z17lcmd_ddr_set_addrhPVh
 439               	.global	_Z10lcmd_writehPVh
 440               		.type	_Z10lcmd_writehPVh, @function
 441               	_Z10lcmd_writehPVh:
 442               	.LFB17:
 168:lcm_so1602dtr_m.cpp **** }
 169:lcm_so1602dtr_m.cpp **** 
 170:lcm_so1602dtr_m.cpp **** /**
 171:lcm_so1602dtr_m.cpp ****  * Pilote - écrit un octet à l'adresse en cours de la CG RAM ou de la DD RAM.
 172:lcm_so1602dtr_m.cpp ****  *
 173:lcm_so1602dtr_m.cpp ****  * @param data		Octet à écrire
 174:lcm_so1602dtr_m.cpp ****  * @param port		Port AVR occupé par l'afficheur
 175:lcm_so1602dtr_m.cpp ****  */
 176:lcm_so1602dtr_m.cpp **** void lcmd_write(const uint8_t data, volatile uint8_t* port) {
 443               		.loc 1 176 0
 444               		.cfi_startproc
 445               	.LVL58:
 446               	/* prologue: function */
 447               	/* frame size = 0 */
 448               	/* stack size = 0 */
 449               	.L__stack_usage = 0
 450 013c 9B01      		movw r18,r22
 177:lcm_so1602dtr_m.cpp **** 	_lcm_function(1, 0, data, 4, port);
 451               		.loc 1 177 0
 452 013e 44E0      		ldi r20,lo8(4)
 453 0140 682F      		mov r22,r24
 454               	.LVL59:
 455 0142 81E0      		ldi r24,lo8(1)
GAS LISTING /var/folders/86/8ymzt0g934z5dpmztl89nd000000gn/T//ccd3mB82.s 			page 18


 456               	.LVL60:
 457 0144 0C94 0000 		jmp _ZL13_lcm_functionhhhhPVh.constprop.0
 458               	.LVL61:
 459               		.cfi_endproc
 460               	.LFE17:
 461               		.size	_Z10lcmd_writehPVh, .-_Z10lcmd_writehPVh
 462               	.global	_Z14lcmd_init_4bitPVhS0_
 463               		.type	_Z14lcmd_init_4bitPVhS0_, @function
 464               	_Z14lcmd_init_4bitPVhS0_:
 465               	.LFB18:
 178:lcm_so1602dtr_m.cpp **** }
 179:lcm_so1602dtr_m.cpp **** 
 180:lcm_so1602dtr_m.cpp **** /**
 181:lcm_so1602dtr_m.cpp ****  * Pilote - initialise l'afficheur LCD avec une interface 4-bit et `Dual Line'.
 182:lcm_so1602dtr_m.cpp ****  *
 183:lcm_so1602dtr_m.cpp ****  * @param ddr		`Data Direction Register' AVR occupé par l'afficheur
 184:lcm_so1602dtr_m.cpp ****  * @param port		Port AVR occupé par l'afficheur
 185:lcm_so1602dtr_m.cpp ****  */
 186:lcm_so1602dtr_m.cpp **** void lcmd_init_4bit(volatile uint8_t* ddr, volatile uint8_t* port) {
 466               		.loc 1 186 0
 467               		.cfi_startproc
 468               	.LVL62:
 469 0148 CF93      		push r28
 470               	.LCFI8:
 471               		.cfi_def_cfa_offset 3
 472               		.cfi_offset 28, -2
 473 014a DF93      		push r29
 474               	.LCFI9:
 475               		.cfi_def_cfa_offset 4
 476               		.cfi_offset 29, -3
 477               	/* prologue: function */
 478               	/* frame size = 0 */
 479               	/* stack size = 2 */
 480               	.L__stack_usage = 2
 481 014c FC01      		movw r30,r24
 482 014e EB01      		movw r28,r22
 483               	.LVL63:
 484               	.LBB55:
 485               	.LBB56:
 163:/usr/local/CrossPack-AVR-20131216/avr/include/util/delay.h **** 	__builtin_avr_delay_cycles(__ticks_dc);
 486               		.loc 3 163 0
 487 0150 8FE2      		ldi r24,lo8(29999)
 488 0152 95E7      		ldi r25,hi8(29999)
 489 0154 0197      		1: sbiw r24,1
 490 0156 01F4      		brne 1b
 491               	.LVL64:
 492 0158 00C0      		rjmp .
 493 015a 0000      		nop
 494               	.LVL65:
 495               	.LBE56:
 496               	.LBE55:
 497               	.LBB57:
 498               	.LBB58:
  36:lcm_so1602dtr_m.cpp **** 	*port &= LCM_CL;
 499               		.loc 1 36 0
 500 015c 8081      		ld r24,Z
 501 015e 8172      		andi r24,lo8(33)
GAS LISTING /var/folders/86/8ymzt0g934z5dpmztl89nd000000gn/T//ccd3mB82.s 			page 19


 502 0160 8083      		st Z,r24
 503               	.LBE58:
 504               	.LBE57:
 187:lcm_so1602dtr_m.cpp **** 	_delay_ms(15.0);
 188:lcm_so1602dtr_m.cpp **** 	
 189:lcm_so1602dtr_m.cpp **** 	_lcm_cp(ddr);
 190:lcm_so1602dtr_m.cpp **** 	*ddr |= ~LCM_CL | _BV(LCM_EN) | _BV(LCM_VO);
 505               		.loc 1 190 0
 506 0162 8081      		ld r24,Z
 507 0164 8FEF      		ldi r24,lo8(-1)
 508 0166 8083      		st Z,r24
 509               	.LVL66:
 510               	.LBB59:
 511               	.LBB60:
  36:lcm_so1602dtr_m.cpp **** 	*port &= LCM_CL;
 512               		.loc 1 36 0
 513 0168 8881      		ld r24,Y
 514 016a 8172      		andi r24,lo8(33)
 515 016c 8883      		st Y,r24
 516               	.LBE60:
 517               	.LBE59:
 191:lcm_so1602dtr_m.cpp **** 	
 192:lcm_so1602dtr_m.cpp **** 	_lcm_cp(port);
 193:lcm_so1602dtr_m.cpp **** 	*port |= _BV(LCM_DB5) | _BV(LCM_DB4);
 518               		.loc 1 193 0
 519 016e 8881      		ld r24,Y
 520 0170 8660      		ori r24,lo8(6)
 521 0172 8883      		st Y,r24
 194:lcm_so1602dtr_m.cpp **** 	*port &= ~_BV(LCM_VO);
 522               		.loc 1 194 0
 523 0174 8881      		ld r24,Y
 524 0176 8E7F      		andi r24,lo8(-2)
 525 0178 8883      		st Y,r24
 195:lcm_so1602dtr_m.cpp **** 	_lcm_fast_en(port);
 526               		.loc 1 195 0
 527 017a CB01      		movw r24,r22
 528 017c 0E94 0000 		call _ZL12_lcm_fast_enPVh
 529               	.LVL67:
 530               	.LBB61:
 531               	.LBB62:
 163:/usr/local/CrossPack-AVR-20131216/avr/include/util/delay.h **** 	__builtin_avr_delay_cycles(__ticks_dc);
 532               		.loc 3 163 0
 533 0180 87E0      		ldi r24,lo8(8199)
 534 0182 90E2      		ldi r25,hi8(8199)
 535 0184 0197      		1: sbiw r24,1
 536 0186 01F4      		brne 1b
 537 0188 00C0      		rjmp .
 538 018a 0000      		nop
 539               	.LBE62:
 540               	.LBE61:
 196:lcm_so1602dtr_m.cpp **** 	_delay_ms(4.1);
 197:lcm_so1602dtr_m.cpp ****     
 198:lcm_so1602dtr_m.cpp **** 	_lcm_fast_en(port);
 541               		.loc 1 198 0
 542 018c CE01      		movw r24,r28
 543 018e 0E94 0000 		call _ZL12_lcm_fast_enPVh
 544               	.LVL68:
GAS LISTING /var/folders/86/8ymzt0g934z5dpmztl89nd000000gn/T//ccd3mB82.s 			page 20


 545               	.LBB63:
 546               	.LBB64:
 163:/usr/local/CrossPack-AVR-20131216/avr/include/util/delay.h **** 	__builtin_avr_delay_cycles(__ticks_dc);
 547               		.loc 3 163 0
 548 0192 87EC      		ldi r24,lo8(199)
 549 0194 90E0      		ldi r25,hi8(199)
 550 0196 0197      		1: sbiw r24,1
 551 0198 01F4      		brne 1b
 552 019a 00C0      		rjmp .
 553 019c 0000      		nop
 554               	.LBE64:
 555               	.LBE63:
 199:lcm_so1602dtr_m.cpp **** 	_delay_ms(0.1);
 200:lcm_so1602dtr_m.cpp ****     
 201:lcm_so1602dtr_m.cpp **** 	_lcm_fast_en(port);
 556               		.loc 1 201 0
 557 019e CE01      		movw r24,r28
 558 01a0 0E94 0000 		call _ZL12_lcm_fast_enPVh
 559               	.LVL69:
 560               	.LBB65:
 561               	.LBB66:
 562               		.loc 3 245 0
 563 01a4 9AE6      		ldi r25,lo8(106)
 564 01a6 9A95      		1: dec r25
 565 01a8 01F4      		brne 1b
 566 01aa 00C0      		rjmp .
 567               	.LVL70:
 568               	.LBE66:
 569               	.LBE65:
 570               	.LBB67:
 571               	.LBB68:
  36:lcm_so1602dtr_m.cpp **** 	*port &= LCM_CL;
 572               		.loc 1 36 0
 573 01ac 8881      		ld r24,Y
 574 01ae 8172      		andi r24,lo8(33)
 575 01b0 8883      		st Y,r24
 576               	.LBE68:
 577               	.LBE67:
 202:lcm_so1602dtr_m.cpp **** 	_delay_us(40.0);
 203:lcm_so1602dtr_m.cpp ****     
 204:lcm_so1602dtr_m.cpp **** 	_lcm_cp(port);
 205:lcm_so1602dtr_m.cpp **** 	*port |= _BV(LCM_DB5);
 578               		.loc 1 205 0
 579 01b2 8881      		ld r24,Y
 580 01b4 8460      		ori r24,lo8(4)
 581 01b6 8883      		st Y,r24
 206:lcm_so1602dtr_m.cpp **** 	_lcm_fast_en(port);
 582               		.loc 1 206 0
 583 01b8 CE01      		movw r24,r28
 584 01ba 0E94 0000 		call _ZL12_lcm_fast_enPVh
 585               	.LVL71:
 586               	.LBB69:
 587               	.LBB70:
 588               		.loc 3 245 0
 589 01be 8AE6      		ldi r24,lo8(106)
 590 01c0 8A95      		1: dec r24
 591 01c2 01F4      		brne 1b
GAS LISTING /var/folders/86/8ymzt0g934z5dpmztl89nd000000gn/T//ccd3mB82.s 			page 21


 592 01c4 00C0      		rjmp .
 593               	.LBE70:
 594               	.LBE69:
 207:lcm_so1602dtr_m.cpp **** 	_delay_us(40.0);
 208:lcm_so1602dtr_m.cpp **** 	
 209:lcm_so1602dtr_m.cpp **** 	_lcm_function(0, 0, 0x2c, 4, port);
 595               		.loc 1 209 0
 596 01c6 9E01      		movw r18,r28
 597 01c8 44E0      		ldi r20,lo8(4)
 598 01ca 6CE2      		ldi r22,lo8(44)
 599 01cc 80E0      		ldi r24,0
 600 01ce 0E94 0000 		call _ZL13_lcm_functionhhhhPVh.constprop.0
 601               	.LVL72:
 210:lcm_so1602dtr_m.cpp **** 	lcmd_disp_on_off(LCM_D_OFF, LCM_C_OFF, LCM_B_OFF, port);
 602               		.loc 1 210 0
 603 01d2 9E01      		movw r18,r28
 604 01d4 40E0      		ldi r20,0
 605 01d6 60E0      		ldi r22,0
 606 01d8 80E0      		ldi r24,0
 607 01da 0E94 0000 		call _Z16lcmd_disp_on_offhhhPVh
 608               	.LVL73:
 211:lcm_so1602dtr_m.cpp **** 	lcmd_disp_clear(port);
 609               		.loc 1 211 0
 610 01de CE01      		movw r24,r28
 611 01e0 0E94 0000 		call _Z15lcmd_disp_clearPVh
 612               	.LVL74:
 212:lcm_so1602dtr_m.cpp **** 	lcmd_entry_sm(LCM_ID_INC, LCM_S_OFF, port);
 613               		.loc 1 212 0
 614 01e4 AE01      		movw r20,r28
 615 01e6 60E0      		ldi r22,0
 616 01e8 81E0      		ldi r24,lo8(1)
 617 01ea 0E94 0000 		call _Z13lcmd_entry_smhhPVh
 618               	.LVL75:
 213:lcm_so1602dtr_m.cpp **** 	lcmd_disp_on_off(LCM_D_ON, LCM_C_OFF, LCM_B_OFF, port);
 619               		.loc 1 213 0
 620 01ee 9E01      		movw r18,r28
 621 01f0 40E0      		ldi r20,0
 622 01f2 60E0      		ldi r22,0
 623 01f4 81E0      		ldi r24,lo8(1)
 624               	/* epilogue start */
 214:lcm_so1602dtr_m.cpp **** }
 625               		.loc 1 214 0
 626 01f6 DF91      		pop r29
 627 01f8 CF91      		pop r28
 628               	.LVL76:
 213:lcm_so1602dtr_m.cpp **** 	lcmd_disp_on_off(LCM_D_ON, LCM_C_OFF, LCM_B_OFF, port);
 629               		.loc 1 213 0
 630 01fa 0C94 0000 		jmp _Z16lcmd_disp_on_offhhhPVh
 631               	.LVL77:
 632               		.cfi_endproc
 633               	.LFE18:
 634               		.size	_Z14lcmd_init_4bitPVhS0_, .-_Z14lcmd_init_4bitPVhS0_
 635               	.Letext0:
 636               		.file 4 "/usr/local/CrossPack-AVR-20131216/avr/include/stdint.h"
 637               		.section	.debug_info,"",@progbits
 638               	.Ldebug_info0:
 639 0000 F109 0000 		.long	0x9f1
GAS LISTING /var/folders/86/8ymzt0g934z5dpmztl89nd000000gn/T//ccd3mB82.s 			page 22


 640 0004 0200      		.word	0x2
 641 0006 0000 0000 		.long	.Ldebug_abbrev0
 642 000a 04        		.byte	0x4
 643 000b 01        		.uleb128 0x1
 644 000c 0000 0000 		.long	.LASF47
 645 0010 04        		.byte	0x4
 646 0011 0000 0000 		.long	.LASF48
 647 0015 0000 0000 		.long	.LASF49
 648 0019 0000 0000 		.long	.Ltext0
 649 001d 0000 0000 		.long	.Letext0
 650 0021 0000 0000 		.long	.Ldebug_line0
 651 0025 02        		.uleb128 0x2
 652 0026 01        		.byte	0x1
 653 0027 06        		.byte	0x6
 654 0028 0000 0000 		.long	.LASF0
 655 002c 03        		.uleb128 0x3
 656 002d 0000 0000 		.long	.LASF4
 657 0031 04        		.byte	0x4
 658 0032 7A        		.byte	0x7a
 659 0033 3700 0000 		.long	0x37
 660 0037 02        		.uleb128 0x2
 661 0038 01        		.byte	0x1
 662 0039 08        		.byte	0x8
 663 003a 0000 0000 		.long	.LASF1
 664 003e 04        		.uleb128 0x4
 665 003f 02        		.byte	0x2
 666 0040 05        		.byte	0x5
 667 0041 696E 7400 		.string	"int"
 668 0045 02        		.uleb128 0x2
 669 0046 02        		.byte	0x2
 670 0047 07        		.byte	0x7
 671 0048 0000 0000 		.long	.LASF2
 672 004c 02        		.uleb128 0x2
 673 004d 04        		.byte	0x4
 674 004e 05        		.byte	0x5
 675 004f 0000 0000 		.long	.LASF3
 676 0053 03        		.uleb128 0x3
 677 0054 0000 0000 		.long	.LASF5
 678 0058 04        		.byte	0x4
 679 0059 7E        		.byte	0x7e
 680 005a 5E00 0000 		.long	0x5e
 681 005e 02        		.uleb128 0x2
 682 005f 04        		.byte	0x4
 683 0060 07        		.byte	0x7
 684 0061 0000 0000 		.long	.LASF6
 685 0065 02        		.uleb128 0x2
 686 0066 08        		.byte	0x8
 687 0067 05        		.byte	0x5
 688 0068 0000 0000 		.long	.LASF7
 689 006c 02        		.uleb128 0x2
 690 006d 08        		.byte	0x8
 691 006e 07        		.byte	0x7
 692 006f 0000 0000 		.long	.LASF8
 693 0073 05        		.uleb128 0x5
 694 0074 0000 0000 		.long	.LASF9
 695 0078 02        		.byte	0x2
 696 0079 51        		.byte	0x51
GAS LISTING /var/folders/86/8ymzt0g934z5dpmztl89nd000000gn/T//ccd3mB82.s 			page 23


 697 007a 03        		.byte	0x3
 698 007b 8B00 0000 		.long	0x8b
 699 007f 06        		.uleb128 0x6
 700 0080 0000 0000 		.long	.LASF11
 701 0084 02        		.byte	0x2
 702 0085 51        		.byte	0x51
 703 0086 2C00 0000 		.long	0x2c
 704 008a 00        		.byte	0
 705 008b 05        		.uleb128 0x5
 706 008c 0000 0000 		.long	.LASF10
 707 0090 01        		.byte	0x1
 708 0091 23        		.byte	0x23
 709 0092 03        		.byte	0x3
 710 0093 A300 0000 		.long	0xa3
 711 0097 06        		.uleb128 0x6
 712 0098 0000 0000 		.long	.LASF12
 713 009c 01        		.byte	0x1
 714 009d 23        		.byte	0x23
 715 009e A300 0000 		.long	0xa3
 716 00a2 00        		.byte	0
 717 00a3 07        		.uleb128 0x7
 718 00a4 02        		.byte	0x2
 719 00a5 A900 0000 		.long	0xa9
 720 00a9 08        		.uleb128 0x8
 721 00aa 2C00 0000 		.long	0x2c
 722 00ae 05        		.uleb128 0x5
 723 00af 0000 0000 		.long	.LASF13
 724 00b3 03        		.byte	0x3
 725 00b4 E0        		.byte	0xe0
 726 00b5 03        		.byte	0x3
 727 00b6 ED00 0000 		.long	0xed
 728 00ba 06        		.uleb128 0x6
 729 00bb 0000 0000 		.long	.LASF14
 730 00bf 03        		.byte	0x3
 731 00c0 E0        		.byte	0xe0
 732 00c1 ED00 0000 		.long	0xed
 733 00c5 09        		.uleb128 0x9
 734 00c6 0A        		.uleb128 0xa
 735 00c7 0000 0000 		.long	.LASF15
 736 00cb 03        		.byte	0x3
 737 00cc E2        		.byte	0xe2
 738 00cd ED00 0000 		.long	0xed
 739 00d1 0A        		.uleb128 0xa
 740 00d2 0000 0000 		.long	.LASF16
 741 00d6 03        		.byte	0x3
 742 00d7 E6        		.byte	0xe6
 743 00d8 5300 0000 		.long	0x53
 744 00dc 0B        		.uleb128 0xb
 745 00dd 01        		.byte	0x1
 746 00de 0000 0000 		.long	.LASF20
 747 00e2 03        		.byte	0x3
 748 00e3 E7        		.byte	0xe7
 749 00e4 01        		.byte	0x1
 750 00e5 0C        		.uleb128 0xc
 751 00e6 5E00 0000 		.long	0x5e
 752 00ea 00        		.byte	0
 753 00eb 00        		.byte	0
GAS LISTING /var/folders/86/8ymzt0g934z5dpmztl89nd000000gn/T//ccd3mB82.s 			page 24


 754 00ec 00        		.byte	0
 755 00ed 02        		.uleb128 0x2
 756 00ee 04        		.byte	0x4
 757 00ef 04        		.byte	0x4
 758 00f0 0000 0000 		.long	.LASF17
 759 00f4 05        		.uleb128 0x5
 760 00f5 0000 0000 		.long	.LASF18
 761 00f9 03        		.byte	0x3
 762 00fa 8E        		.byte	0x8e
 763 00fb 03        		.byte	0x3
 764 00fc 3301 0000 		.long	0x133
 765 0100 06        		.uleb128 0x6
 766 0101 0000 0000 		.long	.LASF19
 767 0105 03        		.byte	0x3
 768 0106 8E        		.byte	0x8e
 769 0107 ED00 0000 		.long	0xed
 770 010b 09        		.uleb128 0x9
 771 010c 0A        		.uleb128 0xa
 772 010d 0000 0000 		.long	.LASF15
 773 0111 03        		.byte	0x3
 774 0112 90        		.byte	0x90
 775 0113 ED00 0000 		.long	0xed
 776 0117 0A        		.uleb128 0xa
 777 0118 0000 0000 		.long	.LASF16
 778 011c 03        		.byte	0x3
 779 011d 94        		.byte	0x94
 780 011e 5300 0000 		.long	0x53
 781 0122 0B        		.uleb128 0xb
 782 0123 01        		.byte	0x1
 783 0124 0000 0000 		.long	.LASF20
 784 0128 03        		.byte	0x3
 785 0129 95        		.byte	0x95
 786 012a 01        		.byte	0x1
 787 012b 0C        		.uleb128 0xc
 788 012c 5E00 0000 		.long	0x5e
 789 0130 00        		.byte	0
 790 0131 00        		.byte	0
 791 0132 00        		.byte	0
 792 0133 05        		.uleb128 0x5
 793 0134 0000 0000 		.long	.LASF21
 794 0138 01        		.byte	0x1
 795 0139 3B        		.byte	0x3b
 796 013a 01        		.byte	0x1
 797 013b 9501 0000 		.long	0x195
 798 013f 0D        		.uleb128 0xd
 799 0140 7273 00   		.string	"rs"
 800 0143 01        		.byte	0x1
 801 0144 3B        		.byte	0x3b
 802 0145 9501 0000 		.long	0x195
 803 0149 0D        		.uleb128 0xd
 804 014a 7277 00   		.string	"rw"
 805 014d 01        		.byte	0x1
 806 014e 3B        		.byte	0x3b
 807 014f 9501 0000 		.long	0x195
 808 0153 0D        		.uleb128 0xd
 809 0154 6462 00   		.string	"db"
 810 0157 01        		.byte	0x1
GAS LISTING /var/folders/86/8ymzt0g934z5dpmztl89nd000000gn/T//ccd3mB82.s 			page 25


 811 0158 3C        		.byte	0x3c
 812 0159 9501 0000 		.long	0x195
 813 015d 06        		.uleb128 0x6
 814 015e 0000 0000 		.long	.LASF22
 815 0162 01        		.byte	0x1
 816 0163 3C        		.byte	0x3c
 817 0164 9501 0000 		.long	0x195
 818 0168 06        		.uleb128 0x6
 819 0169 0000 0000 		.long	.LASF12
 820 016d 01        		.byte	0x1
 821 016e 3C        		.byte	0x3c
 822 016f A300 0000 		.long	0xa3
 823 0173 09        		.uleb128 0x9
 824 0174 0A        		.uleb128 0xa
 825 0175 0000 0000 		.long	.LASF23
 826 0179 01        		.byte	0x1
 827 017a 3D        		.byte	0x3d
 828 017b 2C00 0000 		.long	0x2c
 829 017f 0A        		.uleb128 0xa
 830 0180 0000 0000 		.long	.LASF24
 831 0184 01        		.byte	0x1
 832 0185 3D        		.byte	0x3d
 833 0186 2C00 0000 		.long	0x2c
 834 018a 0E        		.uleb128 0xe
 835 018b 6900      		.string	"i"
 836 018d 01        		.byte	0x1
 837 018e 3D        		.byte	0x3d
 838 018f 2C00 0000 		.long	0x2c
 839 0193 00        		.byte	0
 840 0194 00        		.byte	0
 841 0195 0F        		.uleb128 0xf
 842 0196 2C00 0000 		.long	0x2c
 843 019a 10        		.uleb128 0x10
 844 019b 0000 0000 		.long	.LASF50
 845 019f 01        		.byte	0x1
 846 01a0 2C        		.byte	0x2c
 847 01a1 0000 0000 		.long	.LFB7
 848 01a5 0000 0000 		.long	.LFE7
 849 01a9 03        		.byte	0x3
 850 01aa 92        		.byte	0x92
 851 01ab 20        		.uleb128 0x20
 852 01ac 02        		.sleb128 2
 853 01ad 01        		.byte	0x1
 854 01ae DB01 0000 		.long	0x1db
 855 01b2 11        		.uleb128 0x11
 856 01b3 0000 0000 		.long	.LASF12
 857 01b7 01        		.byte	0x1
 858 01b8 2C        		.byte	0x2c
 859 01b9 A300 0000 		.long	0xa3
 860 01bd 0000 0000 		.long	.LLST0
 861 01c1 12        		.uleb128 0x12
 862 01c2 7300 0000 		.long	0x73
 863 01c6 0000 0000 		.long	.LBB40
 864 01ca 0000 0000 		.long	.LBE40
 865 01ce 01        		.byte	0x1
 866 01cf 2E        		.byte	0x2e
 867 01d0 13        		.uleb128 0x13
GAS LISTING /var/folders/86/8ymzt0g934z5dpmztl89nd000000gn/T//ccd3mB82.s 			page 26


 868 01d1 7F00 0000 		.long	0x7f
 869 01d5 0000 0000 		.long	.LLST1
 870 01d9 00        		.byte	0
 871 01da 00        		.byte	0
 872 01db 14        		.uleb128 0x14
 873 01dc 3301 0000 		.long	0x133
 874 01e0 0000 0000 		.long	.LFB19
 875 01e4 0000 0000 		.long	.LFE19
 876 01e8 0000 0000 		.long	.LLST2
 877 01ec 01        		.byte	0x1
 878 01ed E202 0000 		.long	0x2e2
 879 01f1 13        		.uleb128 0x13
 880 01f2 3F01 0000 		.long	0x13f
 881 01f6 0000 0000 		.long	.LLST3
 882 01fa 13        		.uleb128 0x13
 883 01fb 5301 0000 		.long	0x153
 884 01ff 0000 0000 		.long	.LLST4
 885 0203 13        		.uleb128 0x13
 886 0204 5D01 0000 		.long	0x15d
 887 0208 0000 0000 		.long	.LLST5
 888 020c 13        		.uleb128 0x13
 889 020d 6801 0000 		.long	0x168
 890 0211 0000 0000 		.long	.LLST6
 891 0215 15        		.uleb128 0x15
 892 0216 4901 0000 		.long	0x149
 893 021a 00        		.byte	0
 894 021b 16        		.uleb128 0x16
 895 021c 0000 0000 		.long	.LBB42
 896 0220 0000 0000 		.long	.LBE42
 897 0224 17        		.uleb128 0x17
 898 0225 7401 0000 		.long	0x174
 899 0229 0000 0000 		.long	.LLST7
 900 022d 17        		.uleb128 0x17
 901 022e 7F01 0000 		.long	0x17f
 902 0232 0000 0000 		.long	.LLST8
 903 0236 17        		.uleb128 0x17
 904 0237 8A01 0000 		.long	0x18a
 905 023b 0000 0000 		.long	.LLST9
 906 023f 18        		.uleb128 0x18
 907 0240 8B00 0000 		.long	0x8b
 908 0244 0000 0000 		.long	.LBB43
 909 0248 0000 0000 		.long	.LBE43
 910 024c 01        		.byte	0x1
 911 024d 42        		.byte	0x42
 912 024e 5C02 0000 		.long	0x25c
 913 0252 13        		.uleb128 0x13
 914 0253 9700 0000 		.long	0x97
 915 0257 0000 0000 		.long	.LLST10
 916 025b 00        		.byte	0
 917 025c 18        		.uleb128 0x18
 918 025d 8B00 0000 		.long	0x8b
 919 0261 0000 0000 		.long	.LBB45
 920 0265 0000 0000 		.long	.LBE45
 921 0269 01        		.byte	0x1
 922 026a 46        		.byte	0x46
 923 026b 7902 0000 		.long	0x279
 924 026f 13        		.uleb128 0x13
GAS LISTING /var/folders/86/8ymzt0g934z5dpmztl89nd000000gn/T//ccd3mB82.s 			page 27


 925 0270 9700 0000 		.long	0x97
 926 0274 0000 0000 		.long	.LLST11
 927 0278 00        		.byte	0
 928 0279 18        		.uleb128 0x18
 929 027a AE00 0000 		.long	0xae
 930 027e 0000 0000 		.long	.LBB47
 931 0282 0000 0000 		.long	.LBE47
 932 0286 01        		.byte	0x1
 933 0287 4B        		.byte	0x4b
 934 0288 B202 0000 		.long	0x2b2
 935 028c 13        		.uleb128 0x13
 936 028d BA00 0000 		.long	0xba
 937 0291 0000 0000 		.long	.LLST12
 938 0295 16        		.uleb128 0x16
 939 0296 0000 0000 		.long	.LBB48
 940 029a 0000 0000 		.long	.LBE48
 941 029e 17        		.uleb128 0x17
 942 029f C600 0000 		.long	0xc6
 943 02a3 0000 0000 		.long	.LLST13
 944 02a7 17        		.uleb128 0x17
 945 02a8 D100 0000 		.long	0xd1
 946 02ac 0000 0000 		.long	.LLST14
 947 02b0 00        		.byte	0
 948 02b1 00        		.byte	0
 949 02b2 19        		.uleb128 0x19
 950 02b3 0000 0000 		.long	.LVL9
 951 02b7 9A01 0000 		.long	0x19a
 952 02bb CB02 0000 		.long	0x2cb
 953 02bf 1A        		.uleb128 0x1a
 954 02c0 06        		.byte	0x6
 955 02c1 68        		.byte	0x68
 956 02c2 93        		.byte	0x93
 957 02c3 01        		.uleb128 0x1
 958 02c4 69        		.byte	0x69
 959 02c5 93        		.byte	0x93
 960 02c6 01        		.uleb128 0x1
 961 02c7 02        		.byte	0x2
 962 02c8 7E        		.byte	0x7e
 963 02c9 00        		.sleb128 0
 964 02ca 00        		.byte	0
 965 02cb 1B        		.uleb128 0x1b
 966 02cc 0000 0000 		.long	.LVL10
 967 02d0 9A01 0000 		.long	0x19a
 968 02d4 1A        		.uleb128 0x1a
 969 02d5 06        		.byte	0x6
 970 02d6 68        		.byte	0x68
 971 02d7 93        		.byte	0x93
 972 02d8 01        		.uleb128 0x1
 973 02d9 69        		.byte	0x69
 974 02da 93        		.byte	0x93
 975 02db 01        		.uleb128 0x1
 976 02dc 02        		.byte	0x2
 977 02dd 7E        		.byte	0x7e
 978 02de 00        		.sleb128 0
 979 02df 00        		.byte	0
 980 02e0 00        		.byte	0
 981 02e1 00        		.byte	0
GAS LISTING /var/folders/86/8ymzt0g934z5dpmztl89nd000000gn/T//ccd3mB82.s 			page 28


 982 02e2 1C        		.uleb128 0x1c
 983 02e3 DC00 0000 		.long	0xdc
 984 02e7 00        		.byte	0
 985 02e8 F202 0000 		.long	0x2f2
 986 02ec 0C        		.uleb128 0xc
 987 02ed 5E00 0000 		.long	0x5e
 988 02f1 00        		.byte	0
 989 02f2 1D        		.uleb128 0x1d
 990 02f3 01        		.byte	0x1
 991 02f4 0000 0000 		.long	.LASF25
 992 02f8 01        		.byte	0x1
 993 02f9 54        		.byte	0x54
 994 02fa 0000 0000 		.long	.LASF27
 995 02fe 0000 0000 		.long	.LFB9
 996 0302 0000 0000 		.long	.LFE9
 997 0306 03        		.byte	0x3
 998 0307 92        		.byte	0x92
 999 0308 20        		.uleb128 0x20
 1000 0309 02        		.sleb128 2
 1001 030a 01        		.byte	0x1
 1002 030b 4603 0000 		.long	0x346
 1003 030f 11        		.uleb128 0x11
 1004 0310 0000 0000 		.long	.LASF12
 1005 0314 01        		.byte	0x1
 1006 0315 54        		.byte	0x54
 1007 0316 A300 0000 		.long	0xa3
 1008 031a 0000 0000 		.long	.LLST15
 1009 031e 1E        		.uleb128 0x1e
 1010 031f 0000 0000 		.long	.LVL19
 1011 0323 01        		.byte	0x1
 1012 0324 DB01 0000 		.long	0x1db
 1013 0328 1A        		.uleb128 0x1a
 1014 0329 01        		.byte	0x1
 1015 032a 68        		.byte	0x68
 1016 032b 01        		.byte	0x1
 1017 032c 30        		.byte	0x30
 1018 032d 1A        		.uleb128 0x1a
 1019 032e 01        		.byte	0x1
 1020 032f 66        		.byte	0x66
 1021 0330 01        		.byte	0x1
 1022 0331 31        		.byte	0x31
 1023 0332 1A        		.uleb128 0x1a
 1024 0333 01        		.byte	0x1
 1025 0334 64        		.byte	0x64
 1026 0335 02        		.byte	0x2
 1027 0336 09        		.byte	0x9
 1028 0337 A4        		.byte	0xa4
 1029 0338 1A        		.uleb128 0x1a
 1030 0339 06        		.byte	0x6
 1031 033a 62        		.byte	0x62
 1032 033b 93        		.byte	0x93
 1033 033c 01        		.uleb128 0x1
 1034 033d 63        		.byte	0x63
 1035 033e 93        		.byte	0x93
 1036 033f 01        		.uleb128 0x1
 1037 0340 03        		.byte	0x3
 1038 0341 F3        		.byte	0xf3
GAS LISTING /var/folders/86/8ymzt0g934z5dpmztl89nd000000gn/T//ccd3mB82.s 			page 29


 1039 0342 01        		.uleb128 0x1
 1040 0343 68        		.byte	0x68
 1041 0344 00        		.byte	0
 1042 0345 00        		.byte	0
 1043 0346 1D        		.uleb128 0x1d
 1044 0347 01        		.byte	0x1
 1045 0348 0000 0000 		.long	.LASF26
 1046 034c 01        		.byte	0x1
 1047 034d 5D        		.byte	0x5d
 1048 034e 0000 0000 		.long	.LASF28
 1049 0352 0000 0000 		.long	.LFB10
 1050 0356 0000 0000 		.long	.LFE10
 1051 035a 03        		.byte	0x3
 1052 035b 92        		.byte	0x92
 1053 035c 20        		.uleb128 0x20
 1054 035d 02        		.sleb128 2
 1055 035e 01        		.byte	0x1
 1056 035f 9A03 0000 		.long	0x39a
 1057 0363 11        		.uleb128 0x11
 1058 0364 0000 0000 		.long	.LASF12
 1059 0368 01        		.byte	0x1
 1060 0369 5D        		.byte	0x5d
 1061 036a A300 0000 		.long	0xa3
 1062 036e 0000 0000 		.long	.LLST16
 1063 0372 1E        		.uleb128 0x1e
 1064 0373 0000 0000 		.long	.LVL22
 1065 0377 01        		.byte	0x1
 1066 0378 DB01 0000 		.long	0x1db
 1067 037c 1A        		.uleb128 0x1a
 1068 037d 01        		.byte	0x1
 1069 037e 68        		.byte	0x68
 1070 037f 01        		.byte	0x1
 1071 0380 30        		.byte	0x30
 1072 0381 1A        		.uleb128 0x1a
 1073 0382 01        		.byte	0x1
 1074 0383 66        		.byte	0x66
 1075 0384 01        		.byte	0x1
 1076 0385 32        		.byte	0x32
 1077 0386 1A        		.uleb128 0x1a
 1078 0387 01        		.byte	0x1
 1079 0388 64        		.byte	0x64
 1080 0389 02        		.byte	0x2
 1081 038a 09        		.byte	0x9
 1082 038b A4        		.byte	0xa4
 1083 038c 1A        		.uleb128 0x1a
 1084 038d 06        		.byte	0x6
 1085 038e 62        		.byte	0x62
 1086 038f 93        		.byte	0x93
 1087 0390 01        		.uleb128 0x1
 1088 0391 63        		.byte	0x63
 1089 0392 93        		.byte	0x93
 1090 0393 01        		.uleb128 0x1
 1091 0394 03        		.byte	0x3
 1092 0395 F3        		.byte	0xf3
 1093 0396 01        		.uleb128 0x1
 1094 0397 68        		.byte	0x68
 1095 0398 00        		.byte	0
GAS LISTING /var/folders/86/8ymzt0g934z5dpmztl89nd000000gn/T//ccd3mB82.s 			page 30


 1096 0399 00        		.byte	0
 1097 039a 1D        		.uleb128 0x1d
 1098 039b 01        		.byte	0x1
 1099 039c 0000 0000 		.long	.LASF29
 1100 03a0 01        		.byte	0x1
 1101 03a1 68        		.byte	0x68
 1102 03a2 0000 0000 		.long	.LASF30
 1103 03a6 0000 0000 		.long	.LFB11
 1104 03aa 0000 0000 		.long	.LFE11
 1105 03ae 03        		.byte	0x3
 1106 03af 92        		.byte	0x92
 1107 03b0 20        		.uleb128 0x20
 1108 03b1 02        		.sleb128 2
 1109 03b2 01        		.byte	0x1
 1110 03b3 2A04 0000 		.long	0x42a
 1111 03b7 1F        		.uleb128 0x1f
 1112 03b8 6964 00   		.string	"id"
 1113 03bb 01        		.byte	0x1
 1114 03bc 68        		.byte	0x68
 1115 03bd 9501 0000 		.long	0x195
 1116 03c1 0000 0000 		.long	.LLST17
 1117 03c5 1F        		.uleb128 0x1f
 1118 03c6 7300      		.string	"s"
 1119 03c8 01        		.byte	0x1
 1120 03c9 68        		.byte	0x68
 1121 03ca 9501 0000 		.long	0x195
 1122 03ce 0000 0000 		.long	.LLST18
 1123 03d2 11        		.uleb128 0x11
 1124 03d3 0000 0000 		.long	.LASF12
 1125 03d7 01        		.byte	0x1
 1126 03d8 68        		.byte	0x68
 1127 03d9 A300 0000 		.long	0xa3
 1128 03dd 0000 0000 		.long	.LLST19
 1129 03e1 16        		.uleb128 0x16
 1130 03e2 0000 0000 		.long	.LBB49
 1131 03e6 0000 0000 		.long	.LBE49
 1132 03ea 20        		.uleb128 0x20
 1133 03eb 6462 00   		.string	"db"
 1134 03ee 01        		.byte	0x1
 1135 03ef 69        		.byte	0x69
 1136 03f0 9501 0000 		.long	0x195
 1137 03f4 0000 0000 		.long	.LLST20
 1138 03f8 1E        		.uleb128 0x1e
 1139 03f9 0000 0000 		.long	.LVL28
 1140 03fd 01        		.byte	0x1
 1141 03fe DB01 0000 		.long	0x1db
 1142 0402 1A        		.uleb128 0x1a
 1143 0403 01        		.byte	0x1
 1144 0404 68        		.byte	0x68
 1145 0405 01        		.byte	0x1
 1146 0406 30        		.byte	0x30
 1147 0407 1A        		.uleb128 0x1a
 1148 0408 01        		.byte	0x1
 1149 0409 66        		.byte	0x66
 1150 040a 0B        		.byte	0xb
 1151 040b F3        		.byte	0xf3
 1152 040c 01        		.uleb128 0x1
GAS LISTING /var/folders/86/8ymzt0g934z5dpmztl89nd000000gn/T//ccd3mB82.s 			page 31


 1153 040d 68        		.byte	0x68
 1154 040e 31        		.byte	0x31
 1155 040f 24        		.byte	0x24
 1156 0410 F3        		.byte	0xf3
 1157 0411 01        		.uleb128 0x1
 1158 0412 66        		.byte	0x66
 1159 0413 21        		.byte	0x21
 1160 0414 34        		.byte	0x34
 1161 0415 21        		.byte	0x21
 1162 0416 1A        		.uleb128 0x1a
 1163 0417 01        		.byte	0x1
 1164 0418 64        		.byte	0x64
 1165 0419 01        		.byte	0x1
 1166 041a 34        		.byte	0x34
 1167 041b 1A        		.uleb128 0x1a
 1168 041c 06        		.byte	0x6
 1169 041d 62        		.byte	0x62
 1170 041e 93        		.byte	0x93
 1171 041f 01        		.uleb128 0x1
 1172 0420 63        		.byte	0x63
 1173 0421 93        		.byte	0x93
 1174 0422 01        		.uleb128 0x1
 1175 0423 03        		.byte	0x3
 1176 0424 F3        		.byte	0xf3
 1177 0425 01        		.uleb128 0x1
 1178 0426 64        		.byte	0x64
 1179 0427 00        		.byte	0
 1180 0428 00        		.byte	0
 1181 0429 00        		.byte	0
 1182 042a 1D        		.uleb128 0x1d
 1183 042b 01        		.byte	0x1
 1184 042c 0000 0000 		.long	.LASF31
 1185 0430 01        		.byte	0x1
 1186 0431 75        		.byte	0x75
 1187 0432 0000 0000 		.long	.LASF32
 1188 0436 0000 0000 		.long	.LFB12
 1189 043a 0000 0000 		.long	.LFE12
 1190 043e 03        		.byte	0x3
 1191 043f 92        		.byte	0x92
 1192 0440 20        		.uleb128 0x20
 1193 0441 02        		.sleb128 2
 1194 0442 01        		.byte	0x1
 1195 0443 B704 0000 		.long	0x4b7
 1196 0447 1F        		.uleb128 0x1f
 1197 0448 6400      		.string	"d"
 1198 044a 01        		.byte	0x1
 1199 044b 75        		.byte	0x75
 1200 044c 9501 0000 		.long	0x195
 1201 0450 0000 0000 		.long	.LLST21
 1202 0454 1F        		.uleb128 0x1f
 1203 0455 6300      		.string	"c"
 1204 0457 01        		.byte	0x1
 1205 0458 75        		.byte	0x75
 1206 0459 9501 0000 		.long	0x195
 1207 045d 0000 0000 		.long	.LLST22
 1208 0461 1F        		.uleb128 0x1f
 1209 0462 6200      		.string	"b"
GAS LISTING /var/folders/86/8ymzt0g934z5dpmztl89nd000000gn/T//ccd3mB82.s 			page 32


 1210 0464 01        		.byte	0x1
 1211 0465 75        		.byte	0x75
 1212 0466 9501 0000 		.long	0x195
 1213 046a 0000 0000 		.long	.LLST23
 1214 046e 11        		.uleb128 0x11
 1215 046f 0000 0000 		.long	.LASF12
 1216 0473 01        		.byte	0x1
 1217 0474 76        		.byte	0x76
 1218 0475 A300 0000 		.long	0xa3
 1219 0479 0000 0000 		.long	.LLST24
 1220 047d 16        		.uleb128 0x16
 1221 047e 0000 0000 		.long	.LBB50
 1222 0482 0000 0000 		.long	.LBE50
 1223 0486 20        		.uleb128 0x20
 1224 0487 6462 00   		.string	"db"
 1225 048a 01        		.byte	0x1
 1226 048b 77        		.byte	0x77
 1227 048c 9501 0000 		.long	0x195
 1228 0490 0000 0000 		.long	.LLST25
 1229 0494 1E        		.uleb128 0x1e
 1230 0495 0000 0000 		.long	.LVL33
 1231 0499 01        		.byte	0x1
 1232 049a DB01 0000 		.long	0x1db
 1233 049e 1A        		.uleb128 0x1a
 1234 049f 01        		.byte	0x1
 1235 04a0 68        		.byte	0x68
 1236 04a1 01        		.byte	0x1
 1237 04a2 30        		.byte	0x30
 1238 04a3 1A        		.uleb128 0x1a
 1239 04a4 01        		.byte	0x1
 1240 04a5 64        		.byte	0x64
 1241 04a6 01        		.byte	0x1
 1242 04a7 34        		.byte	0x34
 1243 04a8 1A        		.uleb128 0x1a
 1244 04a9 06        		.byte	0x6
 1245 04aa 62        		.byte	0x62
 1246 04ab 93        		.byte	0x93
 1247 04ac 01        		.uleb128 0x1
 1248 04ad 63        		.byte	0x63
 1249 04ae 93        		.byte	0x93
 1250 04af 01        		.uleb128 0x1
 1251 04b0 03        		.byte	0x3
 1252 04b1 F3        		.byte	0xf3
 1253 04b2 01        		.uleb128 0x1
 1254 04b3 62        		.byte	0x62
 1255 04b4 00        		.byte	0
 1256 04b5 00        		.byte	0
 1257 04b6 00        		.byte	0
 1258 04b7 1D        		.uleb128 0x1d
 1259 04b8 01        		.byte	0x1
 1260 04b9 0000 0000 		.long	.LASF33
 1261 04bd 01        		.byte	0x1
 1262 04be 82        		.byte	0x82
 1263 04bf 0000 0000 		.long	.LASF34
 1264 04c3 0000 0000 		.long	.LFB13
 1265 04c7 0000 0000 		.long	.LFE13
 1266 04cb 03        		.byte	0x3
GAS LISTING /var/folders/86/8ymzt0g934z5dpmztl89nd000000gn/T//ccd3mB82.s 			page 33


 1267 04cc 92        		.byte	0x92
 1268 04cd 20        		.uleb128 0x20
 1269 04ce 02        		.sleb128 2
 1270 04cf 01        		.byte	0x1
 1271 04d0 3905 0000 		.long	0x539
 1272 04d4 1F        		.uleb128 0x1f
 1273 04d5 7363 00   		.string	"sc"
 1274 04d8 01        		.byte	0x1
 1275 04d9 82        		.byte	0x82
 1276 04da 9501 0000 		.long	0x195
 1277 04de 0000 0000 		.long	.LLST26
 1278 04e2 1F        		.uleb128 0x1f
 1279 04e3 726C 00   		.string	"rl"
 1280 04e6 01        		.byte	0x1
 1281 04e7 82        		.byte	0x82
 1282 04e8 9501 0000 		.long	0x195
 1283 04ec 0000 0000 		.long	.LLST27
 1284 04f0 11        		.uleb128 0x11
 1285 04f1 0000 0000 		.long	.LASF12
 1286 04f5 01        		.byte	0x1
 1287 04f6 83        		.byte	0x83
 1288 04f7 A300 0000 		.long	0xa3
 1289 04fb 0000 0000 		.long	.LLST28
 1290 04ff 16        		.uleb128 0x16
 1291 0500 0000 0000 		.long	.LBB51
 1292 0504 0000 0000 		.long	.LBE51
 1293 0508 20        		.uleb128 0x20
 1294 0509 6462 00   		.string	"db"
 1295 050c 01        		.byte	0x1
 1296 050d 84        		.byte	0x84
 1297 050e 9501 0000 		.long	0x195
 1298 0512 0000 0000 		.long	.LLST29
 1299 0516 1E        		.uleb128 0x1e
 1300 0517 0000 0000 		.long	.LVL39
 1301 051b 01        		.byte	0x1
 1302 051c DB01 0000 		.long	0x1db
 1303 0520 1A        		.uleb128 0x1a
 1304 0521 01        		.byte	0x1
 1305 0522 68        		.byte	0x68
 1306 0523 01        		.byte	0x1
 1307 0524 30        		.byte	0x30
 1308 0525 1A        		.uleb128 0x1a
 1309 0526 01        		.byte	0x1
 1310 0527 64        		.byte	0x64
 1311 0528 01        		.byte	0x1
 1312 0529 34        		.byte	0x34
 1313 052a 1A        		.uleb128 0x1a
 1314 052b 06        		.byte	0x6
 1315 052c 62        		.byte	0x62
 1316 052d 93        		.byte	0x93
 1317 052e 01        		.uleb128 0x1
 1318 052f 63        		.byte	0x63
 1319 0530 93        		.byte	0x93
 1320 0531 01        		.uleb128 0x1
 1321 0532 03        		.byte	0x3
 1322 0533 F3        		.byte	0xf3
 1323 0534 01        		.uleb128 0x1
GAS LISTING /var/folders/86/8ymzt0g934z5dpmztl89nd000000gn/T//ccd3mB82.s 			page 34


 1324 0535 64        		.byte	0x64
 1325 0536 00        		.byte	0
 1326 0537 00        		.byte	0
 1327 0538 00        		.byte	0
 1328 0539 1D        		.uleb128 0x1d
 1329 053a 01        		.byte	0x1
 1330 053b 0000 0000 		.long	.LASF35
 1331 053f 01        		.byte	0x1
 1332 0540 8F        		.byte	0x8f
 1333 0541 0000 0000 		.long	.LASF36
 1334 0545 0000 0000 		.long	.LFB14
 1335 0549 0000 0000 		.long	.LFE14
 1336 054d 03        		.byte	0x3
 1337 054e 92        		.byte	0x92
 1338 054f 20        		.uleb128 0x20
 1339 0550 02        		.sleb128 2
 1340 0551 01        		.byte	0x1
 1341 0552 BA05 0000 		.long	0x5ba
 1342 0556 1F        		.uleb128 0x1f
 1343 0557 646C 00   		.string	"dl"
 1344 055a 01        		.byte	0x1
 1345 055b 8F        		.byte	0x8f
 1346 055c 9501 0000 		.long	0x195
 1347 0560 0000 0000 		.long	.LLST30
 1348 0564 1F        		.uleb128 0x1f
 1349 0565 6E00      		.string	"n"
 1350 0567 01        		.byte	0x1
 1351 0568 8F        		.byte	0x8f
 1352 0569 9501 0000 		.long	0x195
 1353 056d 0000 0000 		.long	.LLST31
 1354 0571 11        		.uleb128 0x11
 1355 0572 0000 0000 		.long	.LASF12
 1356 0576 01        		.byte	0x1
 1357 0577 8F        		.byte	0x8f
 1358 0578 A300 0000 		.long	0xa3
 1359 057c 0000 0000 		.long	.LLST32
 1360 0580 16        		.uleb128 0x16
 1361 0581 0000 0000 		.long	.LBB52
 1362 0585 0000 0000 		.long	.LBE52
 1363 0589 20        		.uleb128 0x20
 1364 058a 6462 00   		.string	"db"
 1365 058d 01        		.byte	0x1
 1366 058e 90        		.byte	0x90
 1367 058f 9501 0000 		.long	0x195
 1368 0593 0000 0000 		.long	.LLST33
 1369 0597 1E        		.uleb128 0x1e
 1370 0598 0000 0000 		.long	.LVL45
 1371 059c 01        		.byte	0x1
 1372 059d DB01 0000 		.long	0x1db
 1373 05a1 1A        		.uleb128 0x1a
 1374 05a2 01        		.byte	0x1
 1375 05a3 68        		.byte	0x68
 1376 05a4 01        		.byte	0x1
 1377 05a5 30        		.byte	0x30
 1378 05a6 1A        		.uleb128 0x1a
 1379 05a7 01        		.byte	0x1
 1380 05a8 64        		.byte	0x64
GAS LISTING /var/folders/86/8ymzt0g934z5dpmztl89nd000000gn/T//ccd3mB82.s 			page 35


 1381 05a9 01        		.byte	0x1
 1382 05aa 34        		.byte	0x34
 1383 05ab 1A        		.uleb128 0x1a
 1384 05ac 06        		.byte	0x6
 1385 05ad 62        		.byte	0x62
 1386 05ae 93        		.byte	0x93
 1387 05af 01        		.uleb128 0x1
 1388 05b0 63        		.byte	0x63
 1389 05b1 93        		.byte	0x93
 1390 05b2 01        		.uleb128 0x1
 1391 05b3 03        		.byte	0x3
 1392 05b4 F3        		.byte	0xf3
 1393 05b5 01        		.uleb128 0x1
 1394 05b6 64        		.byte	0x64
 1395 05b7 00        		.byte	0
 1396 05b8 00        		.byte	0
 1397 05b9 00        		.byte	0
 1398 05ba 1D        		.uleb128 0x1d
 1399 05bb 01        		.byte	0x1
 1400 05bc 0000 0000 		.long	.LASF37
 1401 05c0 01        		.byte	0x1
 1402 05c1 9A        		.byte	0x9a
 1403 05c2 0000 0000 		.long	.LASF38
 1404 05c6 0000 0000 		.long	.LFB15
 1405 05ca 0000 0000 		.long	.LFE15
 1406 05ce 03        		.byte	0x3
 1407 05cf 92        		.byte	0x92
 1408 05d0 20        		.uleb128 0x20
 1409 05d1 02        		.sleb128 2
 1410 05d2 01        		.byte	0x1
 1411 05d3 3C06 0000 		.long	0x63c
 1412 05d7 11        		.uleb128 0x11
 1413 05d8 0000 0000 		.long	.LASF39
 1414 05dc 01        		.byte	0x1
 1415 05dd 9A        		.byte	0x9a
 1416 05de 9501 0000 		.long	0x195
 1417 05e2 0000 0000 		.long	.LLST34
 1418 05e6 11        		.uleb128 0x11
 1419 05e7 0000 0000 		.long	.LASF12
 1420 05eb 01        		.byte	0x1
 1421 05ec 9A        		.byte	0x9a
 1422 05ed A300 0000 		.long	0xa3
 1423 05f1 0000 0000 		.long	.LLST35
 1424 05f5 16        		.uleb128 0x16
 1425 05f6 0000 0000 		.long	.LBB53
 1426 05fa 0000 0000 		.long	.LBE53
 1427 05fe 20        		.uleb128 0x20
 1428 05ff 6462 00   		.string	"db"
 1429 0602 01        		.byte	0x1
 1430 0603 9B        		.byte	0x9b
 1431 0604 9501 0000 		.long	0x195
 1432 0608 0000 0000 		.long	.LLST36
 1433 060c 1E        		.uleb128 0x1e
 1434 060d 0000 0000 		.long	.LVL51
 1435 0611 01        		.byte	0x1
 1436 0612 DB01 0000 		.long	0x1db
 1437 0616 1A        		.uleb128 0x1a
GAS LISTING /var/folders/86/8ymzt0g934z5dpmztl89nd000000gn/T//ccd3mB82.s 			page 36


 1438 0617 01        		.byte	0x1
 1439 0618 68        		.byte	0x68
 1440 0619 01        		.byte	0x1
 1441 061a 30        		.byte	0x30
 1442 061b 1A        		.uleb128 0x1a
 1443 061c 01        		.byte	0x1
 1444 061d 66        		.byte	0x66
 1445 061e 09        		.byte	0x9
 1446 061f F3        		.byte	0xf3
 1447 0620 01        		.uleb128 0x1
 1448 0621 68        		.byte	0x68
 1449 0622 08        		.byte	0x8
 1450 0623 3F        		.byte	0x3f
 1451 0624 1A        		.byte	0x1a
 1452 0625 08        		.byte	0x8
 1453 0626 40        		.byte	0x40
 1454 0627 21        		.byte	0x21
 1455 0628 1A        		.uleb128 0x1a
 1456 0629 01        		.byte	0x1
 1457 062a 64        		.byte	0x64
 1458 062b 01        		.byte	0x1
 1459 062c 34        		.byte	0x34
 1460 062d 1A        		.uleb128 0x1a
 1461 062e 06        		.byte	0x6
 1462 062f 62        		.byte	0x62
 1463 0630 93        		.byte	0x93
 1464 0631 01        		.uleb128 0x1
 1465 0632 63        		.byte	0x63
 1466 0633 93        		.byte	0x93
 1467 0634 01        		.uleb128 0x1
 1468 0635 03        		.byte	0x3
 1469 0636 F3        		.byte	0xf3
 1470 0637 01        		.uleb128 0x1
 1471 0638 66        		.byte	0x66
 1472 0639 00        		.byte	0
 1473 063a 00        		.byte	0
 1474 063b 00        		.byte	0
 1475 063c 1D        		.uleb128 0x1d
 1476 063d 01        		.byte	0x1
 1477 063e 0000 0000 		.long	.LASF40
 1478 0642 01        		.byte	0x1
 1479 0643 A5        		.byte	0xa5
 1480 0644 0000 0000 		.long	.LASF41
 1481 0648 0000 0000 		.long	.LFB16
 1482 064c 0000 0000 		.long	.LFE16
 1483 0650 03        		.byte	0x3
 1484 0651 92        		.byte	0x92
 1485 0652 20        		.uleb128 0x20
 1486 0653 02        		.sleb128 2
 1487 0654 01        		.byte	0x1
 1488 0655 BB06 0000 		.long	0x6bb
 1489 0659 11        		.uleb128 0x11
 1490 065a 0000 0000 		.long	.LASF39
 1491 065e 01        		.byte	0x1
 1492 065f A5        		.byte	0xa5
 1493 0660 9501 0000 		.long	0x195
 1494 0664 0000 0000 		.long	.LLST37
GAS LISTING /var/folders/86/8ymzt0g934z5dpmztl89nd000000gn/T//ccd3mB82.s 			page 37


 1495 0668 11        		.uleb128 0x11
 1496 0669 0000 0000 		.long	.LASF12
 1497 066d 01        		.byte	0x1
 1498 066e A5        		.byte	0xa5
 1499 066f A300 0000 		.long	0xa3
 1500 0673 0000 0000 		.long	.LLST38
 1501 0677 16        		.uleb128 0x16
 1502 0678 0000 0000 		.long	.LBB54
 1503 067c 0000 0000 		.long	.LBE54
 1504 0680 20        		.uleb128 0x20
 1505 0681 6462 00   		.string	"db"
 1506 0684 01        		.byte	0x1
 1507 0685 A6        		.byte	0xa6
 1508 0686 9501 0000 		.long	0x195
 1509 068a 0000 0000 		.long	.LLST39
 1510 068e 1E        		.uleb128 0x1e
 1511 068f 0000 0000 		.long	.LVL57
 1512 0693 01        		.byte	0x1
 1513 0694 DB01 0000 		.long	0x1db
 1514 0698 1A        		.uleb128 0x1a
 1515 0699 01        		.byte	0x1
 1516 069a 68        		.byte	0x68
 1517 069b 01        		.byte	0x1
 1518 069c 30        		.byte	0x30
 1519 069d 1A        		.uleb128 0x1a
 1520 069e 01        		.byte	0x1
 1521 069f 66        		.byte	0x66
 1522 06a0 06        		.byte	0x6
 1523 06a1 F3        		.byte	0xf3
 1524 06a2 01        		.uleb128 0x1
 1525 06a3 68        		.byte	0x68
 1526 06a4 09        		.byte	0x9
 1527 06a5 80        		.byte	0x80
 1528 06a6 21        		.byte	0x21
 1529 06a7 1A        		.uleb128 0x1a
 1530 06a8 01        		.byte	0x1
 1531 06a9 64        		.byte	0x64
 1532 06aa 01        		.byte	0x1
 1533 06ab 34        		.byte	0x34
 1534 06ac 1A        		.uleb128 0x1a
 1535 06ad 06        		.byte	0x6
 1536 06ae 62        		.byte	0x62
 1537 06af 93        		.byte	0x93
 1538 06b0 01        		.uleb128 0x1
 1539 06b1 63        		.byte	0x63
 1540 06b2 93        		.byte	0x93
 1541 06b3 01        		.uleb128 0x1
 1542 06b4 03        		.byte	0x3
 1543 06b5 F3        		.byte	0xf3
 1544 06b6 01        		.uleb128 0x1
 1545 06b7 66        		.byte	0x66
 1546 06b8 00        		.byte	0
 1547 06b9 00        		.byte	0
 1548 06ba 00        		.byte	0
 1549 06bb 1D        		.uleb128 0x1d
 1550 06bc 01        		.byte	0x1
 1551 06bd 0000 0000 		.long	.LASF42
GAS LISTING /var/folders/86/8ymzt0g934z5dpmztl89nd000000gn/T//ccd3mB82.s 			page 38


 1552 06c1 01        		.byte	0x1
 1553 06c2 B0        		.byte	0xb0
 1554 06c3 0000 0000 		.long	.LASF43
 1555 06c7 0000 0000 		.long	.LFB17
 1556 06cb 0000 0000 		.long	.LFE17
 1557 06cf 03        		.byte	0x3
 1558 06d0 92        		.byte	0x92
 1559 06d1 20        		.uleb128 0x20
 1560 06d2 02        		.sleb128 2
 1561 06d3 01        		.byte	0x1
 1562 06d4 1F07 0000 		.long	0x71f
 1563 06d8 11        		.uleb128 0x11
 1564 06d9 0000 0000 		.long	.LASF44
 1565 06dd 01        		.byte	0x1
 1566 06de B0        		.byte	0xb0
 1567 06df 9501 0000 		.long	0x195
 1568 06e3 0000 0000 		.long	.LLST40
 1569 06e7 11        		.uleb128 0x11
 1570 06e8 0000 0000 		.long	.LASF12
 1571 06ec 01        		.byte	0x1
 1572 06ed B0        		.byte	0xb0
 1573 06ee A300 0000 		.long	0xa3
 1574 06f2 0000 0000 		.long	.LLST41
 1575 06f6 1E        		.uleb128 0x1e
 1576 06f7 0000 0000 		.long	.LVL61
 1577 06fb 01        		.byte	0x1
 1578 06fc DB01 0000 		.long	0x1db
 1579 0700 1A        		.uleb128 0x1a
 1580 0701 01        		.byte	0x1
 1581 0702 68        		.byte	0x68
 1582 0703 01        		.byte	0x1
 1583 0704 31        		.byte	0x31
 1584 0705 1A        		.uleb128 0x1a
 1585 0706 01        		.byte	0x1
 1586 0707 66        		.byte	0x66
 1587 0708 03        		.byte	0x3
 1588 0709 F3        		.byte	0xf3
 1589 070a 01        		.uleb128 0x1
 1590 070b 68        		.byte	0x68
 1591 070c 1A        		.uleb128 0x1a
 1592 070d 01        		.byte	0x1
 1593 070e 64        		.byte	0x64
 1594 070f 01        		.byte	0x1
 1595 0710 34        		.byte	0x34
 1596 0711 1A        		.uleb128 0x1a
 1597 0712 06        		.byte	0x6
 1598 0713 62        		.byte	0x62
 1599 0714 93        		.byte	0x93
 1600 0715 01        		.uleb128 0x1
 1601 0716 63        		.byte	0x63
 1602 0717 93        		.byte	0x93
 1603 0718 01        		.uleb128 0x1
 1604 0719 03        		.byte	0x3
 1605 071a F3        		.byte	0xf3
 1606 071b 01        		.uleb128 0x1
 1607 071c 66        		.byte	0x66
 1608 071d 00        		.byte	0
GAS LISTING /var/folders/86/8ymzt0g934z5dpmztl89nd000000gn/T//ccd3mB82.s 			page 39


 1609 071e 00        		.byte	0
 1610 071f 21        		.uleb128 0x21
 1611 0720 01        		.byte	0x1
 1612 0721 0000 0000 		.long	.LASF45
 1613 0725 01        		.byte	0x1
 1614 0726 BA        		.byte	0xba
 1615 0727 0000 0000 		.long	.LASF46
 1616 072b 0000 0000 		.long	.LFB18
 1617 072f 0000 0000 		.long	.LFE18
 1618 0733 0000 0000 		.long	.LLST42
 1619 0737 01        		.byte	0x1
 1620 0738 E809 0000 		.long	0x9e8
 1621 073c 1F        		.uleb128 0x1f
 1622 073d 6464 7200 		.string	"ddr"
 1623 0741 01        		.byte	0x1
 1624 0742 BA        		.byte	0xba
 1625 0743 A300 0000 		.long	0xa3
 1626 0747 0000 0000 		.long	.LLST43
 1627 074b 11        		.uleb128 0x11
 1628 074c 0000 0000 		.long	.LASF12
 1629 0750 01        		.byte	0x1
 1630 0751 BA        		.byte	0xba
 1631 0752 A300 0000 		.long	0xa3
 1632 0756 0000 0000 		.long	.LLST44
 1633 075a 18        		.uleb128 0x18
 1634 075b F400 0000 		.long	0xf4
 1635 075f 0000 0000 		.long	.LBB55
 1636 0763 0000 0000 		.long	.LBE55
 1637 0767 01        		.byte	0x1
 1638 0768 BB        		.byte	0xbb
 1639 0769 9507 0000 		.long	0x795
 1640 076d 22        		.uleb128 0x22
 1641 076e 0001 0000 		.long	0x100
 1642 0772 04        		.byte	0x4
 1643 0773 0000 7041 		.long	0x41700000
 1644 0777 16        		.uleb128 0x16
 1645 0778 0000 0000 		.long	.LBB56
 1646 077c 0000 0000 		.long	.LBE56
 1647 0780 23        		.uleb128 0x23
 1648 0781 0C01 0000 		.long	0x10c
 1649 0785 04        		.byte	0x4
 1650 0786 0060 EA47 		.long	0x47ea6000
 1651 078a 24        		.uleb128 0x24
 1652 078b 1701 0000 		.long	0x117
 1653 078f C0D4 0100 		.long	0x1d4c0
 1654 0793 00        		.byte	0
 1655 0794 00        		.byte	0
 1656 0795 18        		.uleb128 0x18
 1657 0796 8B00 0000 		.long	0x8b
 1658 079a 0000 0000 		.long	.LBB57
 1659 079e 0000 0000 		.long	.LBE57
 1660 07a2 01        		.byte	0x1
 1661 07a3 BD        		.byte	0xbd
 1662 07a4 B207 0000 		.long	0x7b2
 1663 07a8 13        		.uleb128 0x13
 1664 07a9 9700 0000 		.long	0x97
 1665 07ad 0000 0000 		.long	.LLST45
GAS LISTING /var/folders/86/8ymzt0g934z5dpmztl89nd000000gn/T//ccd3mB82.s 			page 40


 1666 07b1 00        		.byte	0
 1667 07b2 18        		.uleb128 0x18
 1668 07b3 8B00 0000 		.long	0x8b
 1669 07b7 0000 0000 		.long	.LBB59
 1670 07bb 0000 0000 		.long	.LBE59
 1671 07bf 01        		.byte	0x1
 1672 07c0 C0        		.byte	0xc0
 1673 07c1 CF07 0000 		.long	0x7cf
 1674 07c5 13        		.uleb128 0x13
 1675 07c6 9700 0000 		.long	0x97
 1676 07ca 0000 0000 		.long	.LLST46
 1677 07ce 00        		.byte	0
 1678 07cf 18        		.uleb128 0x18
 1679 07d0 F400 0000 		.long	0xf4
 1680 07d4 0000 0000 		.long	.LBB61
 1681 07d8 0000 0000 		.long	.LBE61
 1682 07dc 01        		.byte	0x1
 1683 07dd C4        		.byte	0xc4
 1684 07de 0808 0000 		.long	0x808
 1685 07e2 22        		.uleb128 0x22
 1686 07e3 0001 0000 		.long	0x100
 1687 07e7 04        		.byte	0x4
 1688 07e8 3333 8340 		.long	0x40833333
 1689 07ec 16        		.uleb128 0x16
 1690 07ed 0000 0000 		.long	.LBB62
 1691 07f1 0000 0000 		.long	.LBE62
 1692 07f5 23        		.uleb128 0x23
 1693 07f6 0C01 0000 		.long	0x10c
 1694 07fa 04        		.byte	0x4
 1695 07fb 0020 0047 		.long	0x47002000
 1696 07ff 25        		.uleb128 0x25
 1697 0800 1701 0000 		.long	0x117
 1698 0804 2080      		.word	0x8020
 1699 0806 00        		.byte	0
 1700 0807 00        		.byte	0
 1701 0808 18        		.uleb128 0x18
 1702 0809 F400 0000 		.long	0xf4
 1703 080d 0000 0000 		.long	.LBB63
 1704 0811 0000 0000 		.long	.LBE63
 1705 0815 01        		.byte	0x1
 1706 0816 C7        		.byte	0xc7
 1707 0817 4108 0000 		.long	0x841
 1708 081b 22        		.uleb128 0x22
 1709 081c 0001 0000 		.long	0x100
 1710 0820 04        		.byte	0x4
 1711 0821 CDCC CC3D 		.long	0x3dcccccd
 1712 0825 16        		.uleb128 0x16
 1713 0826 0000 0000 		.long	.LBB64
 1714 082a 0000 0000 		.long	.LBE64
 1715 082e 23        		.uleb128 0x23
 1716 082f 0C01 0000 		.long	0x10c
 1717 0833 04        		.byte	0x4
 1718 0834 0000 4844 		.long	0x44480000
 1719 0838 25        		.uleb128 0x25
 1720 0839 1701 0000 		.long	0x117
 1721 083d 2003      		.word	0x320
 1722 083f 00        		.byte	0
GAS LISTING /var/folders/86/8ymzt0g934z5dpmztl89nd000000gn/T//ccd3mB82.s 			page 41


 1723 0840 00        		.byte	0
 1724 0841 18        		.uleb128 0x18
 1725 0842 AE00 0000 		.long	0xae
 1726 0846 0000 0000 		.long	.LBB65
 1727 084a 0000 0000 		.long	.LBE65
 1728 084e 01        		.byte	0x1
 1729 084f CA        		.byte	0xca
 1730 0850 7A08 0000 		.long	0x87a
 1731 0854 22        		.uleb128 0x22
 1732 0855 BA00 0000 		.long	0xba
 1733 0859 04        		.byte	0x4
 1734 085a 0000 2042 		.long	0x42200000
 1735 085e 16        		.uleb128 0x16
 1736 085f 0000 0000 		.long	.LBB66
 1737 0863 0000 0000 		.long	.LBE66
 1738 0867 23        		.uleb128 0x23
 1739 0868 C600 0000 		.long	0xc6
 1740 086c 04        		.byte	0x4
 1741 086d 0000 A043 		.long	0x43a00000
 1742 0871 25        		.uleb128 0x25
 1743 0872 D100 0000 		.long	0xd1
 1744 0876 4001      		.word	0x140
 1745 0878 00        		.byte	0
 1746 0879 00        		.byte	0
 1747 087a 18        		.uleb128 0x18
 1748 087b 8B00 0000 		.long	0x8b
 1749 087f 0000 0000 		.long	.LBB67
 1750 0883 0000 0000 		.long	.LBE67
 1751 0887 01        		.byte	0x1
 1752 0888 CC        		.byte	0xcc
 1753 0889 9708 0000 		.long	0x897
 1754 088d 13        		.uleb128 0x13
 1755 088e 9700 0000 		.long	0x97
 1756 0892 0000 0000 		.long	.LLST47
 1757 0896 00        		.byte	0
 1758 0897 18        		.uleb128 0x18
 1759 0898 AE00 0000 		.long	0xae
 1760 089c 0000 0000 		.long	.LBB69
 1761 08a0 0000 0000 		.long	.LBE69
 1762 08a4 01        		.byte	0x1
 1763 08a5 CF        		.byte	0xcf
 1764 08a6 D008 0000 		.long	0x8d0
 1765 08aa 22        		.uleb128 0x22
 1766 08ab BA00 0000 		.long	0xba
 1767 08af 04        		.byte	0x4
 1768 08b0 0000 2042 		.long	0x42200000
 1769 08b4 16        		.uleb128 0x16
 1770 08b5 0000 0000 		.long	.LBB70
 1771 08b9 0000 0000 		.long	.LBE70
 1772 08bd 23        		.uleb128 0x23
 1773 08be C600 0000 		.long	0xc6
 1774 08c2 04        		.byte	0x4
 1775 08c3 0000 A043 		.long	0x43a00000
 1776 08c7 25        		.uleb128 0x25
 1777 08c8 D100 0000 		.long	0xd1
 1778 08cc 4001      		.word	0x140
 1779 08ce 00        		.byte	0
GAS LISTING /var/folders/86/8ymzt0g934z5dpmztl89nd000000gn/T//ccd3mB82.s 			page 42


 1780 08cf 00        		.byte	0
 1781 08d0 19        		.uleb128 0x19
 1782 08d1 0000 0000 		.long	.LVL67
 1783 08d5 9A01 0000 		.long	0x19a
 1784 08d9 E908 0000 		.long	0x8e9
 1785 08dd 1A        		.uleb128 0x1a
 1786 08de 06        		.byte	0x6
 1787 08df 68        		.byte	0x68
 1788 08e0 93        		.byte	0x93
 1789 08e1 01        		.uleb128 0x1
 1790 08e2 69        		.byte	0x69
 1791 08e3 93        		.byte	0x93
 1792 08e4 01        		.uleb128 0x1
 1793 08e5 02        		.byte	0x2
 1794 08e6 8C        		.byte	0x8c
 1795 08e7 00        		.sleb128 0
 1796 08e8 00        		.byte	0
 1797 08e9 19        		.uleb128 0x19
 1798 08ea 0000 0000 		.long	.LVL68
 1799 08ee 9A01 0000 		.long	0x19a
 1800 08f2 0209 0000 		.long	0x902
 1801 08f6 1A        		.uleb128 0x1a
 1802 08f7 06        		.byte	0x6
 1803 08f8 68        		.byte	0x68
 1804 08f9 93        		.byte	0x93
 1805 08fa 01        		.uleb128 0x1
 1806 08fb 69        		.byte	0x69
 1807 08fc 93        		.byte	0x93
 1808 08fd 01        		.uleb128 0x1
 1809 08fe 02        		.byte	0x2
 1810 08ff 8C        		.byte	0x8c
 1811 0900 00        		.sleb128 0
 1812 0901 00        		.byte	0
 1813 0902 19        		.uleb128 0x19
 1814 0903 0000 0000 		.long	.LVL69
 1815 0907 9A01 0000 		.long	0x19a
 1816 090b 1B09 0000 		.long	0x91b
 1817 090f 1A        		.uleb128 0x1a
 1818 0910 06        		.byte	0x6
 1819 0911 68        		.byte	0x68
 1820 0912 93        		.byte	0x93
 1821 0913 01        		.uleb128 0x1
 1822 0914 69        		.byte	0x69
 1823 0915 93        		.byte	0x93
 1824 0916 01        		.uleb128 0x1
 1825 0917 02        		.byte	0x2
 1826 0918 8C        		.byte	0x8c
 1827 0919 00        		.sleb128 0
 1828 091a 00        		.byte	0
 1829 091b 19        		.uleb128 0x19
 1830 091c 0000 0000 		.long	.LVL71
 1831 0920 9A01 0000 		.long	0x19a
 1832 0924 3409 0000 		.long	0x934
 1833 0928 1A        		.uleb128 0x1a
 1834 0929 06        		.byte	0x6
 1835 092a 68        		.byte	0x68
 1836 092b 93        		.byte	0x93
GAS LISTING /var/folders/86/8ymzt0g934z5dpmztl89nd000000gn/T//ccd3mB82.s 			page 43


 1837 092c 01        		.uleb128 0x1
 1838 092d 69        		.byte	0x69
 1839 092e 93        		.byte	0x93
 1840 092f 01        		.uleb128 0x1
 1841 0930 02        		.byte	0x2
 1842 0931 8C        		.byte	0x8c
 1843 0932 00        		.sleb128 0
 1844 0933 00        		.byte	0
 1845 0934 19        		.uleb128 0x19
 1846 0935 0000 0000 		.long	.LVL72
 1847 0939 DB01 0000 		.long	0x1db
 1848 093d 5D09 0000 		.long	0x95d
 1849 0941 1A        		.uleb128 0x1a
 1850 0942 01        		.byte	0x1
 1851 0943 68        		.byte	0x68
 1852 0944 01        		.byte	0x1
 1853 0945 30        		.byte	0x30
 1854 0946 1A        		.uleb128 0x1a
 1855 0947 01        		.byte	0x1
 1856 0948 66        		.byte	0x66
 1857 0949 02        		.byte	0x2
 1858 094a 08        		.byte	0x8
 1859 094b 2C        		.byte	0x2c
 1860 094c 1A        		.uleb128 0x1a
 1861 094d 01        		.byte	0x1
 1862 094e 64        		.byte	0x64
 1863 094f 01        		.byte	0x1
 1864 0950 34        		.byte	0x34
 1865 0951 1A        		.uleb128 0x1a
 1866 0952 06        		.byte	0x6
 1867 0953 62        		.byte	0x62
 1868 0954 93        		.byte	0x93
 1869 0955 01        		.uleb128 0x1
 1870 0956 63        		.byte	0x63
 1871 0957 93        		.byte	0x93
 1872 0958 01        		.uleb128 0x1
 1873 0959 02        		.byte	0x2
 1874 095a 8C        		.byte	0x8c
 1875 095b 00        		.sleb128 0
 1876 095c 00        		.byte	0
 1877 095d 19        		.uleb128 0x19
 1878 095e 0000 0000 		.long	.LVL73
 1879 0962 2A04 0000 		.long	0x42a
 1880 0966 8509 0000 		.long	0x985
 1881 096a 1A        		.uleb128 0x1a
 1882 096b 01        		.byte	0x1
 1883 096c 68        		.byte	0x68
 1884 096d 01        		.byte	0x1
 1885 096e 30        		.byte	0x30
 1886 096f 1A        		.uleb128 0x1a
 1887 0970 01        		.byte	0x1
 1888 0971 66        		.byte	0x66
 1889 0972 01        		.byte	0x1
 1890 0973 30        		.byte	0x30
 1891 0974 1A        		.uleb128 0x1a
 1892 0975 01        		.byte	0x1
 1893 0976 64        		.byte	0x64
GAS LISTING /var/folders/86/8ymzt0g934z5dpmztl89nd000000gn/T//ccd3mB82.s 			page 44


 1894 0977 01        		.byte	0x1
 1895 0978 30        		.byte	0x30
 1896 0979 1A        		.uleb128 0x1a
 1897 097a 06        		.byte	0x6
 1898 097b 62        		.byte	0x62
 1899 097c 93        		.byte	0x93
 1900 097d 01        		.uleb128 0x1
 1901 097e 63        		.byte	0x63
 1902 097f 93        		.byte	0x93
 1903 0980 01        		.uleb128 0x1
 1904 0981 02        		.byte	0x2
 1905 0982 8C        		.byte	0x8c
 1906 0983 00        		.sleb128 0
 1907 0984 00        		.byte	0
 1908 0985 19        		.uleb128 0x19
 1909 0986 0000 0000 		.long	.LVL74
 1910 098a F202 0000 		.long	0x2f2
 1911 098e 9E09 0000 		.long	0x99e
 1912 0992 1A        		.uleb128 0x1a
 1913 0993 06        		.byte	0x6
 1914 0994 68        		.byte	0x68
 1915 0995 93        		.byte	0x93
 1916 0996 01        		.uleb128 0x1
 1917 0997 69        		.byte	0x69
 1918 0998 93        		.byte	0x93
 1919 0999 01        		.uleb128 0x1
 1920 099a 02        		.byte	0x2
 1921 099b 8C        		.byte	0x8c
 1922 099c 00        		.sleb128 0
 1923 099d 00        		.byte	0
 1924 099e 19        		.uleb128 0x19
 1925 099f 0000 0000 		.long	.LVL75
 1926 09a3 9A03 0000 		.long	0x39a
 1927 09a7 C109 0000 		.long	0x9c1
 1928 09ab 1A        		.uleb128 0x1a
 1929 09ac 01        		.byte	0x1
 1930 09ad 68        		.byte	0x68
 1931 09ae 01        		.byte	0x1
 1932 09af 31        		.byte	0x31
 1933 09b0 1A        		.uleb128 0x1a
 1934 09b1 01        		.byte	0x1
 1935 09b2 66        		.byte	0x66
 1936 09b3 01        		.byte	0x1
 1937 09b4 30        		.byte	0x30
 1938 09b5 1A        		.uleb128 0x1a
 1939 09b6 06        		.byte	0x6
 1940 09b7 64        		.byte	0x64
 1941 09b8 93        		.byte	0x93
 1942 09b9 01        		.uleb128 0x1
 1943 09ba 65        		.byte	0x65
 1944 09bb 93        		.byte	0x93
 1945 09bc 01        		.uleb128 0x1
 1946 09bd 02        		.byte	0x2
 1947 09be 8C        		.byte	0x8c
 1948 09bf 00        		.sleb128 0
 1949 09c0 00        		.byte	0
 1950 09c1 1E        		.uleb128 0x1e
GAS LISTING /var/folders/86/8ymzt0g934z5dpmztl89nd000000gn/T//ccd3mB82.s 			page 45


 1951 09c2 0000 0000 		.long	.LVL77
 1952 09c6 01        		.byte	0x1
 1953 09c7 2A04 0000 		.long	0x42a
 1954 09cb 1A        		.uleb128 0x1a
 1955 09cc 01        		.byte	0x1
 1956 09cd 68        		.byte	0x68
 1957 09ce 01        		.byte	0x1
 1958 09cf 31        		.byte	0x31
 1959 09d0 1A        		.uleb128 0x1a
 1960 09d1 01        		.byte	0x1
 1961 09d2 66        		.byte	0x66
 1962 09d3 01        		.byte	0x1
 1963 09d4 30        		.byte	0x30
 1964 09d5 1A        		.uleb128 0x1a
 1965 09d6 01        		.byte	0x1
 1966 09d7 64        		.byte	0x64
 1967 09d8 01        		.byte	0x1
 1968 09d9 30        		.byte	0x30
 1969 09da 1A        		.uleb128 0x1a
 1970 09db 06        		.byte	0x6
 1971 09dc 62        		.byte	0x62
 1972 09dd 93        		.byte	0x93
 1973 09de 01        		.uleb128 0x1
 1974 09df 63        		.byte	0x63
 1975 09e0 93        		.byte	0x93
 1976 09e1 01        		.uleb128 0x1
 1977 09e2 03        		.byte	0x3
 1978 09e3 F3        		.byte	0xf3
 1979 09e4 01        		.uleb128 0x1
 1980 09e5 66        		.byte	0x66
 1981 09e6 00        		.byte	0
 1982 09e7 00        		.byte	0
 1983 09e8 26        		.uleb128 0x26
 1984 09e9 2201 0000 		.long	0x122
 1985 09ed 00        		.byte	0
 1986 09ee 0C        		.uleb128 0xc
 1987 09ef 5E00 0000 		.long	0x5e
 1988 09f3 00        		.byte	0
 1989 09f4 00        		.byte	0
 1990               		.section	.debug_abbrev,"",@progbits
 1991               	.Ldebug_abbrev0:
 1992 0000 01        		.uleb128 0x1
 1993 0001 11        		.uleb128 0x11
 1994 0002 01        		.byte	0x1
 1995 0003 25        		.uleb128 0x25
 1996 0004 0E        		.uleb128 0xe
 1997 0005 13        		.uleb128 0x13
 1998 0006 0B        		.uleb128 0xb
 1999 0007 03        		.uleb128 0x3
 2000 0008 0E        		.uleb128 0xe
 2001 0009 1B        		.uleb128 0x1b
 2002 000a 0E        		.uleb128 0xe
 2003 000b 11        		.uleb128 0x11
 2004 000c 01        		.uleb128 0x1
 2005 000d 12        		.uleb128 0x12
 2006 000e 01        		.uleb128 0x1
 2007 000f 10        		.uleb128 0x10
GAS LISTING /var/folders/86/8ymzt0g934z5dpmztl89nd000000gn/T//ccd3mB82.s 			page 46


 2008 0010 06        		.uleb128 0x6
 2009 0011 00        		.byte	0
 2010 0012 00        		.byte	0
 2011 0013 02        		.uleb128 0x2
 2012 0014 24        		.uleb128 0x24
 2013 0015 00        		.byte	0
 2014 0016 0B        		.uleb128 0xb
 2015 0017 0B        		.uleb128 0xb
 2016 0018 3E        		.uleb128 0x3e
 2017 0019 0B        		.uleb128 0xb
 2018 001a 03        		.uleb128 0x3
 2019 001b 0E        		.uleb128 0xe
 2020 001c 00        		.byte	0
 2021 001d 00        		.byte	0
 2022 001e 03        		.uleb128 0x3
 2023 001f 16        		.uleb128 0x16
 2024 0020 00        		.byte	0
 2025 0021 03        		.uleb128 0x3
 2026 0022 0E        		.uleb128 0xe
 2027 0023 3A        		.uleb128 0x3a
 2028 0024 0B        		.uleb128 0xb
 2029 0025 3B        		.uleb128 0x3b
 2030 0026 0B        		.uleb128 0xb
 2031 0027 49        		.uleb128 0x49
 2032 0028 13        		.uleb128 0x13
 2033 0029 00        		.byte	0
 2034 002a 00        		.byte	0
 2035 002b 04        		.uleb128 0x4
 2036 002c 24        		.uleb128 0x24
 2037 002d 00        		.byte	0
 2038 002e 0B        		.uleb128 0xb
 2039 002f 0B        		.uleb128 0xb
 2040 0030 3E        		.uleb128 0x3e
 2041 0031 0B        		.uleb128 0xb
 2042 0032 03        		.uleb128 0x3
 2043 0033 08        		.uleb128 0x8
 2044 0034 00        		.byte	0
 2045 0035 00        		.byte	0
 2046 0036 05        		.uleb128 0x5
 2047 0037 2E        		.uleb128 0x2e
 2048 0038 01        		.byte	0x1
 2049 0039 03        		.uleb128 0x3
 2050 003a 0E        		.uleb128 0xe
 2051 003b 3A        		.uleb128 0x3a
 2052 003c 0B        		.uleb128 0xb
 2053 003d 3B        		.uleb128 0x3b
 2054 003e 0B        		.uleb128 0xb
 2055 003f 20        		.uleb128 0x20
 2056 0040 0B        		.uleb128 0xb
 2057 0041 01        		.uleb128 0x1
 2058 0042 13        		.uleb128 0x13
 2059 0043 00        		.byte	0
 2060 0044 00        		.byte	0
 2061 0045 06        		.uleb128 0x6
 2062 0046 05        		.uleb128 0x5
 2063 0047 00        		.byte	0
 2064 0048 03        		.uleb128 0x3
GAS LISTING /var/folders/86/8ymzt0g934z5dpmztl89nd000000gn/T//ccd3mB82.s 			page 47


 2065 0049 0E        		.uleb128 0xe
 2066 004a 3A        		.uleb128 0x3a
 2067 004b 0B        		.uleb128 0xb
 2068 004c 3B        		.uleb128 0x3b
 2069 004d 0B        		.uleb128 0xb
 2070 004e 49        		.uleb128 0x49
 2071 004f 13        		.uleb128 0x13
 2072 0050 00        		.byte	0
 2073 0051 00        		.byte	0
 2074 0052 07        		.uleb128 0x7
 2075 0053 0F        		.uleb128 0xf
 2076 0054 00        		.byte	0
 2077 0055 0B        		.uleb128 0xb
 2078 0056 0B        		.uleb128 0xb
 2079 0057 49        		.uleb128 0x49
 2080 0058 13        		.uleb128 0x13
 2081 0059 00        		.byte	0
 2082 005a 00        		.byte	0
 2083 005b 08        		.uleb128 0x8
 2084 005c 35        		.uleb128 0x35
 2085 005d 00        		.byte	0
 2086 005e 49        		.uleb128 0x49
 2087 005f 13        		.uleb128 0x13
 2088 0060 00        		.byte	0
 2089 0061 00        		.byte	0
 2090 0062 09        		.uleb128 0x9
 2091 0063 0B        		.uleb128 0xb
 2092 0064 01        		.byte	0x1
 2093 0065 00        		.byte	0
 2094 0066 00        		.byte	0
 2095 0067 0A        		.uleb128 0xa
 2096 0068 34        		.uleb128 0x34
 2097 0069 00        		.byte	0
 2098 006a 03        		.uleb128 0x3
 2099 006b 0E        		.uleb128 0xe
 2100 006c 3A        		.uleb128 0x3a
 2101 006d 0B        		.uleb128 0xb
 2102 006e 3B        		.uleb128 0x3b
 2103 006f 0B        		.uleb128 0xb
 2104 0070 49        		.uleb128 0x49
 2105 0071 13        		.uleb128 0x13
 2106 0072 00        		.byte	0
 2107 0073 00        		.byte	0
 2108 0074 0B        		.uleb128 0xb
 2109 0075 2E        		.uleb128 0x2e
 2110 0076 01        		.byte	0x1
 2111 0077 3F        		.uleb128 0x3f
 2112 0078 0C        		.uleb128 0xc
 2113 0079 03        		.uleb128 0x3
 2114 007a 0E        		.uleb128 0xe
 2115 007b 3A        		.uleb128 0x3a
 2116 007c 0B        		.uleb128 0xb
 2117 007d 3B        		.uleb128 0x3b
 2118 007e 0B        		.uleb128 0xb
 2119 007f 3C        		.uleb128 0x3c
 2120 0080 0C        		.uleb128 0xc
 2121 0081 00        		.byte	0
GAS LISTING /var/folders/86/8ymzt0g934z5dpmztl89nd000000gn/T//ccd3mB82.s 			page 48


 2122 0082 00        		.byte	0
 2123 0083 0C        		.uleb128 0xc
 2124 0084 05        		.uleb128 0x5
 2125 0085 00        		.byte	0
 2126 0086 49        		.uleb128 0x49
 2127 0087 13        		.uleb128 0x13
 2128 0088 00        		.byte	0
 2129 0089 00        		.byte	0
 2130 008a 0D        		.uleb128 0xd
 2131 008b 05        		.uleb128 0x5
 2132 008c 00        		.byte	0
 2133 008d 03        		.uleb128 0x3
 2134 008e 08        		.uleb128 0x8
 2135 008f 3A        		.uleb128 0x3a
 2136 0090 0B        		.uleb128 0xb
 2137 0091 3B        		.uleb128 0x3b
 2138 0092 0B        		.uleb128 0xb
 2139 0093 49        		.uleb128 0x49
 2140 0094 13        		.uleb128 0x13
 2141 0095 00        		.byte	0
 2142 0096 00        		.byte	0
 2143 0097 0E        		.uleb128 0xe
 2144 0098 34        		.uleb128 0x34
 2145 0099 00        		.byte	0
 2146 009a 03        		.uleb128 0x3
 2147 009b 08        		.uleb128 0x8
 2148 009c 3A        		.uleb128 0x3a
 2149 009d 0B        		.uleb128 0xb
 2150 009e 3B        		.uleb128 0x3b
 2151 009f 0B        		.uleb128 0xb
 2152 00a0 49        		.uleb128 0x49
 2153 00a1 13        		.uleb128 0x13
 2154 00a2 00        		.byte	0
 2155 00a3 00        		.byte	0
 2156 00a4 0F        		.uleb128 0xf
 2157 00a5 26        		.uleb128 0x26
 2158 00a6 00        		.byte	0
 2159 00a7 49        		.uleb128 0x49
 2160 00a8 13        		.uleb128 0x13
 2161 00a9 00        		.byte	0
 2162 00aa 00        		.byte	0
 2163 00ab 10        		.uleb128 0x10
 2164 00ac 2E        		.uleb128 0x2e
 2165 00ad 01        		.byte	0x1
 2166 00ae 03        		.uleb128 0x3
 2167 00af 0E        		.uleb128 0xe
 2168 00b0 3A        		.uleb128 0x3a
 2169 00b1 0B        		.uleb128 0xb
 2170 00b2 3B        		.uleb128 0x3b
 2171 00b3 0B        		.uleb128 0xb
 2172 00b4 11        		.uleb128 0x11
 2173 00b5 01        		.uleb128 0x1
 2174 00b6 12        		.uleb128 0x12
 2175 00b7 01        		.uleb128 0x1
 2176 00b8 40        		.uleb128 0x40
 2177 00b9 0A        		.uleb128 0xa
 2178 00ba 9742      		.uleb128 0x2117
GAS LISTING /var/folders/86/8ymzt0g934z5dpmztl89nd000000gn/T//ccd3mB82.s 			page 49


 2179 00bc 0C        		.uleb128 0xc
 2180 00bd 01        		.uleb128 0x1
 2181 00be 13        		.uleb128 0x13
 2182 00bf 00        		.byte	0
 2183 00c0 00        		.byte	0
 2184 00c1 11        		.uleb128 0x11
 2185 00c2 05        		.uleb128 0x5
 2186 00c3 00        		.byte	0
 2187 00c4 03        		.uleb128 0x3
 2188 00c5 0E        		.uleb128 0xe
 2189 00c6 3A        		.uleb128 0x3a
 2190 00c7 0B        		.uleb128 0xb
 2191 00c8 3B        		.uleb128 0x3b
 2192 00c9 0B        		.uleb128 0xb
 2193 00ca 49        		.uleb128 0x49
 2194 00cb 13        		.uleb128 0x13
 2195 00cc 02        		.uleb128 0x2
 2196 00cd 06        		.uleb128 0x6
 2197 00ce 00        		.byte	0
 2198 00cf 00        		.byte	0
 2199 00d0 12        		.uleb128 0x12
 2200 00d1 1D        		.uleb128 0x1d
 2201 00d2 01        		.byte	0x1
 2202 00d3 31        		.uleb128 0x31
 2203 00d4 13        		.uleb128 0x13
 2204 00d5 11        		.uleb128 0x11
 2205 00d6 01        		.uleb128 0x1
 2206 00d7 12        		.uleb128 0x12
 2207 00d8 01        		.uleb128 0x1
 2208 00d9 58        		.uleb128 0x58
 2209 00da 0B        		.uleb128 0xb
 2210 00db 59        		.uleb128 0x59
 2211 00dc 0B        		.uleb128 0xb
 2212 00dd 00        		.byte	0
 2213 00de 00        		.byte	0
 2214 00df 13        		.uleb128 0x13
 2215 00e0 05        		.uleb128 0x5
 2216 00e1 00        		.byte	0
 2217 00e2 31        		.uleb128 0x31
 2218 00e3 13        		.uleb128 0x13
 2219 00e4 02        		.uleb128 0x2
 2220 00e5 06        		.uleb128 0x6
 2221 00e6 00        		.byte	0
 2222 00e7 00        		.byte	0
 2223 00e8 14        		.uleb128 0x14
 2224 00e9 2E        		.uleb128 0x2e
 2225 00ea 01        		.byte	0x1
 2226 00eb 31        		.uleb128 0x31
 2227 00ec 13        		.uleb128 0x13
 2228 00ed 11        		.uleb128 0x11
 2229 00ee 01        		.uleb128 0x1
 2230 00ef 12        		.uleb128 0x12
 2231 00f0 01        		.uleb128 0x1
 2232 00f1 40        		.uleb128 0x40
 2233 00f2 06        		.uleb128 0x6
 2234 00f3 9742      		.uleb128 0x2117
 2235 00f5 0C        		.uleb128 0xc
GAS LISTING /var/folders/86/8ymzt0g934z5dpmztl89nd000000gn/T//ccd3mB82.s 			page 50


 2236 00f6 01        		.uleb128 0x1
 2237 00f7 13        		.uleb128 0x13
 2238 00f8 00        		.byte	0
 2239 00f9 00        		.byte	0
 2240 00fa 15        		.uleb128 0x15
 2241 00fb 05        		.uleb128 0x5
 2242 00fc 00        		.byte	0
 2243 00fd 31        		.uleb128 0x31
 2244 00fe 13        		.uleb128 0x13
 2245 00ff 1C        		.uleb128 0x1c
 2246 0100 0B        		.uleb128 0xb
 2247 0101 00        		.byte	0
 2248 0102 00        		.byte	0
 2249 0103 16        		.uleb128 0x16
 2250 0104 0B        		.uleb128 0xb
 2251 0105 01        		.byte	0x1
 2252 0106 11        		.uleb128 0x11
 2253 0107 01        		.uleb128 0x1
 2254 0108 12        		.uleb128 0x12
 2255 0109 01        		.uleb128 0x1
 2256 010a 00        		.byte	0
 2257 010b 00        		.byte	0
 2258 010c 17        		.uleb128 0x17
 2259 010d 34        		.uleb128 0x34
 2260 010e 00        		.byte	0
 2261 010f 31        		.uleb128 0x31
 2262 0110 13        		.uleb128 0x13
 2263 0111 02        		.uleb128 0x2
 2264 0112 06        		.uleb128 0x6
 2265 0113 00        		.byte	0
 2266 0114 00        		.byte	0
 2267 0115 18        		.uleb128 0x18
 2268 0116 1D        		.uleb128 0x1d
 2269 0117 01        		.byte	0x1
 2270 0118 31        		.uleb128 0x31
 2271 0119 13        		.uleb128 0x13
 2272 011a 11        		.uleb128 0x11
 2273 011b 01        		.uleb128 0x1
 2274 011c 12        		.uleb128 0x12
 2275 011d 01        		.uleb128 0x1
 2276 011e 58        		.uleb128 0x58
 2277 011f 0B        		.uleb128 0xb
 2278 0120 59        		.uleb128 0x59
 2279 0121 0B        		.uleb128 0xb
 2280 0122 01        		.uleb128 0x1
 2281 0123 13        		.uleb128 0x13
 2282 0124 00        		.byte	0
 2283 0125 00        		.byte	0
 2284 0126 19        		.uleb128 0x19
 2285 0127 8982 01   		.uleb128 0x4109
 2286 012a 01        		.byte	0x1
 2287 012b 11        		.uleb128 0x11
 2288 012c 01        		.uleb128 0x1
 2289 012d 31        		.uleb128 0x31
 2290 012e 13        		.uleb128 0x13
 2291 012f 01        		.uleb128 0x1
 2292 0130 13        		.uleb128 0x13
GAS LISTING /var/folders/86/8ymzt0g934z5dpmztl89nd000000gn/T//ccd3mB82.s 			page 51


 2293 0131 00        		.byte	0
 2294 0132 00        		.byte	0
 2295 0133 1A        		.uleb128 0x1a
 2296 0134 8A82 01   		.uleb128 0x410a
 2297 0137 00        		.byte	0
 2298 0138 02        		.uleb128 0x2
 2299 0139 0A        		.uleb128 0xa
 2300 013a 9142      		.uleb128 0x2111
 2301 013c 0A        		.uleb128 0xa
 2302 013d 00        		.byte	0
 2303 013e 00        		.byte	0
 2304 013f 1B        		.uleb128 0x1b
 2305 0140 8982 01   		.uleb128 0x4109
 2306 0143 01        		.byte	0x1
 2307 0144 11        		.uleb128 0x11
 2308 0145 01        		.uleb128 0x1
 2309 0146 31        		.uleb128 0x31
 2310 0147 13        		.uleb128 0x13
 2311 0148 00        		.byte	0
 2312 0149 00        		.byte	0
 2313 014a 1C        		.uleb128 0x1c
 2314 014b 2E        		.uleb128 0x2e
 2315 014c 01        		.byte	0x1
 2316 014d 47        		.uleb128 0x47
 2317 014e 13        		.uleb128 0x13
 2318 014f 20        		.uleb128 0x20
 2319 0150 0B        		.uleb128 0xb
 2320 0151 01        		.uleb128 0x1
 2321 0152 13        		.uleb128 0x13
 2322 0153 00        		.byte	0
 2323 0154 00        		.byte	0
 2324 0155 1D        		.uleb128 0x1d
 2325 0156 2E        		.uleb128 0x2e
 2326 0157 01        		.byte	0x1
 2327 0158 3F        		.uleb128 0x3f
 2328 0159 0C        		.uleb128 0xc
 2329 015a 03        		.uleb128 0x3
 2330 015b 0E        		.uleb128 0xe
 2331 015c 3A        		.uleb128 0x3a
 2332 015d 0B        		.uleb128 0xb
 2333 015e 3B        		.uleb128 0x3b
 2334 015f 0B        		.uleb128 0xb
 2335 0160 8740      		.uleb128 0x2007
 2336 0162 0E        		.uleb128 0xe
 2337 0163 11        		.uleb128 0x11
 2338 0164 01        		.uleb128 0x1
 2339 0165 12        		.uleb128 0x12
 2340 0166 01        		.uleb128 0x1
 2341 0167 40        		.uleb128 0x40
 2342 0168 0A        		.uleb128 0xa
 2343 0169 9742      		.uleb128 0x2117
 2344 016b 0C        		.uleb128 0xc
 2345 016c 01        		.uleb128 0x1
 2346 016d 13        		.uleb128 0x13
 2347 016e 00        		.byte	0
 2348 016f 00        		.byte	0
 2349 0170 1E        		.uleb128 0x1e
GAS LISTING /var/folders/86/8ymzt0g934z5dpmztl89nd000000gn/T//ccd3mB82.s 			page 52


 2350 0171 8982 01   		.uleb128 0x4109
 2351 0174 01        		.byte	0x1
 2352 0175 11        		.uleb128 0x11
 2353 0176 01        		.uleb128 0x1
 2354 0177 9542      		.uleb128 0x2115
 2355 0179 0C        		.uleb128 0xc
 2356 017a 31        		.uleb128 0x31
 2357 017b 13        		.uleb128 0x13
 2358 017c 00        		.byte	0
 2359 017d 00        		.byte	0
 2360 017e 1F        		.uleb128 0x1f
 2361 017f 05        		.uleb128 0x5
 2362 0180 00        		.byte	0
 2363 0181 03        		.uleb128 0x3
 2364 0182 08        		.uleb128 0x8
 2365 0183 3A        		.uleb128 0x3a
 2366 0184 0B        		.uleb128 0xb
 2367 0185 3B        		.uleb128 0x3b
 2368 0186 0B        		.uleb128 0xb
 2369 0187 49        		.uleb128 0x49
 2370 0188 13        		.uleb128 0x13
 2371 0189 02        		.uleb128 0x2
 2372 018a 06        		.uleb128 0x6
 2373 018b 00        		.byte	0
 2374 018c 00        		.byte	0
 2375 018d 20        		.uleb128 0x20
 2376 018e 34        		.uleb128 0x34
 2377 018f 00        		.byte	0
 2378 0190 03        		.uleb128 0x3
 2379 0191 08        		.uleb128 0x8
 2380 0192 3A        		.uleb128 0x3a
 2381 0193 0B        		.uleb128 0xb
 2382 0194 3B        		.uleb128 0x3b
 2383 0195 0B        		.uleb128 0xb
 2384 0196 49        		.uleb128 0x49
 2385 0197 13        		.uleb128 0x13
 2386 0198 02        		.uleb128 0x2
 2387 0199 06        		.uleb128 0x6
 2388 019a 00        		.byte	0
 2389 019b 00        		.byte	0
 2390 019c 21        		.uleb128 0x21
 2391 019d 2E        		.uleb128 0x2e
 2392 019e 01        		.byte	0x1
 2393 019f 3F        		.uleb128 0x3f
 2394 01a0 0C        		.uleb128 0xc
 2395 01a1 03        		.uleb128 0x3
 2396 01a2 0E        		.uleb128 0xe
 2397 01a3 3A        		.uleb128 0x3a
 2398 01a4 0B        		.uleb128 0xb
 2399 01a5 3B        		.uleb128 0x3b
 2400 01a6 0B        		.uleb128 0xb
 2401 01a7 8740      		.uleb128 0x2007
 2402 01a9 0E        		.uleb128 0xe
 2403 01aa 11        		.uleb128 0x11
 2404 01ab 01        		.uleb128 0x1
 2405 01ac 12        		.uleb128 0x12
 2406 01ad 01        		.uleb128 0x1
GAS LISTING /var/folders/86/8ymzt0g934z5dpmztl89nd000000gn/T//ccd3mB82.s 			page 53


 2407 01ae 40        		.uleb128 0x40
 2408 01af 06        		.uleb128 0x6
 2409 01b0 9742      		.uleb128 0x2117
 2410 01b2 0C        		.uleb128 0xc
 2411 01b3 01        		.uleb128 0x1
 2412 01b4 13        		.uleb128 0x13
 2413 01b5 00        		.byte	0
 2414 01b6 00        		.byte	0
 2415 01b7 22        		.uleb128 0x22
 2416 01b8 05        		.uleb128 0x5
 2417 01b9 00        		.byte	0
 2418 01ba 31        		.uleb128 0x31
 2419 01bb 13        		.uleb128 0x13
 2420 01bc 1C        		.uleb128 0x1c
 2421 01bd 0A        		.uleb128 0xa
 2422 01be 00        		.byte	0
 2423 01bf 00        		.byte	0
 2424 01c0 23        		.uleb128 0x23
 2425 01c1 34        		.uleb128 0x34
 2426 01c2 00        		.byte	0
 2427 01c3 31        		.uleb128 0x31
 2428 01c4 13        		.uleb128 0x13
 2429 01c5 1C        		.uleb128 0x1c
 2430 01c6 0A        		.uleb128 0xa
 2431 01c7 00        		.byte	0
 2432 01c8 00        		.byte	0
 2433 01c9 24        		.uleb128 0x24
 2434 01ca 34        		.uleb128 0x34
 2435 01cb 00        		.byte	0
 2436 01cc 31        		.uleb128 0x31
 2437 01cd 13        		.uleb128 0x13
 2438 01ce 1C        		.uleb128 0x1c
 2439 01cf 06        		.uleb128 0x6
 2440 01d0 00        		.byte	0
 2441 01d1 00        		.byte	0
 2442 01d2 25        		.uleb128 0x25
 2443 01d3 34        		.uleb128 0x34
 2444 01d4 00        		.byte	0
 2445 01d5 31        		.uleb128 0x31
 2446 01d6 13        		.uleb128 0x13
 2447 01d7 1C        		.uleb128 0x1c
 2448 01d8 05        		.uleb128 0x5
 2449 01d9 00        		.byte	0
 2450 01da 00        		.byte	0
 2451 01db 26        		.uleb128 0x26
 2452 01dc 2E        		.uleb128 0x2e
 2453 01dd 01        		.byte	0x1
 2454 01de 47        		.uleb128 0x47
 2455 01df 13        		.uleb128 0x13
 2456 01e0 20        		.uleb128 0x20
 2457 01e1 0B        		.uleb128 0xb
 2458 01e2 00        		.byte	0
 2459 01e3 00        		.byte	0
 2460 01e4 00        		.byte	0
 2461               		.section	.debug_loc,"",@progbits
 2462               	.Ldebug_loc0:
 2463               	.LLST0:
GAS LISTING /var/folders/86/8ymzt0g934z5dpmztl89nd000000gn/T//ccd3mB82.s 			page 54


 2464 0000 0000 0000 		.long	.LVL0-.Ltext0
 2465 0004 0400 0000 		.long	.LVL1-.Ltext0
 2466 0008 0600      		.word	0x6
 2467 000a 68        		.byte	0x68
 2468 000b 93        		.byte	0x93
 2469 000c 01        		.uleb128 0x1
 2470 000d 69        		.byte	0x69
 2471 000e 93        		.byte	0x93
 2472 000f 01        		.uleb128 0x1
 2473 0010 0400 0000 		.long	.LVL1-.Ltext0
 2474 0014 1600 0000 		.long	.LFE7-.Ltext0
 2475 0018 0600      		.word	0x6
 2476 001a 6E        		.byte	0x6e
 2477 001b 93        		.byte	0x93
 2478 001c 01        		.uleb128 0x1
 2479 001d 6F        		.byte	0x6f
 2480 001e 93        		.byte	0x93
 2481 001f 01        		.uleb128 0x1
 2482 0020 0000 0000 		.long	0
 2483 0024 0000 0000 		.long	0
 2484               	.LLST1:
 2485 0028 0800 0000 		.long	.LVL2-.Ltext0
 2486 002c 0E00 0000 		.long	.LVL3-.Ltext0
 2487 0030 0200      		.word	0x2
 2488 0032 34        		.byte	0x34
 2489 0033 9F        		.byte	0x9f
 2490 0034 0000 0000 		.long	0
 2491 0038 0000 0000 		.long	0
 2492               	.LLST2:
 2493 003c 1600 0000 		.long	.LFB19-.Ltext0
 2494 0040 1800 0000 		.long	.LCFI0-.Ltext0
 2495 0044 0300      		.word	0x3
 2496 0046 92        		.byte	0x92
 2497 0047 20        		.uleb128 0x20
 2498 0048 02        		.sleb128 2
 2499 0049 1800 0000 		.long	.LCFI0-.Ltext0
 2500 004d 1A00 0000 		.long	.LCFI1-.Ltext0
 2501 0051 0300      		.word	0x3
 2502 0053 92        		.byte	0x92
 2503 0054 20        		.uleb128 0x20
 2504 0055 03        		.sleb128 3
 2505 0056 1A00 0000 		.long	.LCFI1-.Ltext0
 2506 005a 1C00 0000 		.long	.LCFI2-.Ltext0
 2507 005e 0300      		.word	0x3
 2508 0060 92        		.byte	0x92
 2509 0061 20        		.uleb128 0x20
 2510 0062 04        		.sleb128 4
 2511 0063 1C00 0000 		.long	.LCFI2-.Ltext0
 2512 0067 1E00 0000 		.long	.LCFI3-.Ltext0
 2513 006b 0300      		.word	0x3
 2514 006d 92        		.byte	0x92
 2515 006e 20        		.uleb128 0x20
 2516 006f 05        		.sleb128 5
 2517 0070 1E00 0000 		.long	.LCFI3-.Ltext0
 2518 0074 2000 0000 		.long	.LCFI4-.Ltext0
 2519 0078 0300      		.word	0x3
 2520 007a 92        		.byte	0x92
GAS LISTING /var/folders/86/8ymzt0g934z5dpmztl89nd000000gn/T//ccd3mB82.s 			page 55


 2521 007b 20        		.uleb128 0x20
 2522 007c 06        		.sleb128 6
 2523 007d 2000 0000 		.long	.LCFI4-.Ltext0
 2524 0081 2200 0000 		.long	.LCFI5-.Ltext0
 2525 0085 0300      		.word	0x3
 2526 0087 92        		.byte	0x92
 2527 0088 20        		.uleb128 0x20
 2528 0089 07        		.sleb128 7
 2529 008a 2200 0000 		.long	.LCFI5-.Ltext0
 2530 008e 2400 0000 		.long	.LCFI6-.Ltext0
 2531 0092 0300      		.word	0x3
 2532 0094 92        		.byte	0x92
 2533 0095 20        		.uleb128 0x20
 2534 0096 08        		.sleb128 8
 2535 0097 2400 0000 		.long	.LCFI6-.Ltext0
 2536 009b 2800 0000 		.long	.LCFI7-.Ltext0
 2537 009f 0300      		.word	0x3
 2538 00a1 92        		.byte	0x92
 2539 00a2 20        		.uleb128 0x20
 2540 00a3 0A        		.sleb128 10
 2541 00a4 2800 0000 		.long	.LCFI7-.Ltext0
 2542 00a8 A000 0000 		.long	.LFE19-.Ltext0
 2543 00ac 0200      		.word	0x2
 2544 00ae 8C        		.byte	0x8c
 2545 00af 0A        		.sleb128 10
 2546 00b0 0000 0000 		.long	0
 2547 00b4 0000 0000 		.long	0
 2548               	.LLST3:
 2549 00b8 1600 0000 		.long	.LVL4-.Ltext0
 2550 00bc 3600 0000 		.long	.LVL7-.Ltext0
 2551 00c0 0100      		.word	0x1
 2552 00c2 68        		.byte	0x68
 2553 00c3 3600 0000 		.long	.LVL7-.Ltext0
 2554 00c7 A000 0000 		.long	.LFE19-.Ltext0
 2555 00cb 0400      		.word	0x4
 2556 00cd F3        		.byte	0xf3
 2557 00ce 01        		.uleb128 0x1
 2558 00cf 68        		.byte	0x68
 2559 00d0 9F        		.byte	0x9f
 2560 00d1 0000 0000 		.long	0
 2561 00d5 0000 0000 		.long	0
 2562               	.LLST4:
 2563 00d9 1600 0000 		.long	.LVL4-.Ltext0
 2564 00dd 5D00 0000 		.long	.LVL9-1-.Ltext0
 2565 00e1 0100      		.word	0x1
 2566 00e3 66        		.byte	0x66
 2567 00e4 5D00 0000 		.long	.LVL9-1-.Ltext0
 2568 00e8 A000 0000 		.long	.LFE19-.Ltext0
 2569 00ec 0400      		.word	0x4
 2570 00ee F3        		.byte	0xf3
 2571 00ef 01        		.uleb128 0x1
 2572 00f0 66        		.byte	0x66
 2573 00f1 9F        		.byte	0x9f
 2574 00f2 0000 0000 		.long	0
 2575 00f6 0000 0000 		.long	0
 2576               	.LLST5:
 2577 00fa 1600 0000 		.long	.LVL4-.Ltext0
GAS LISTING /var/folders/86/8ymzt0g934z5dpmztl89nd000000gn/T//ccd3mB82.s 			page 56


 2578 00fe 5D00 0000 		.long	.LVL9-1-.Ltext0
 2579 0102 0100      		.word	0x1
 2580 0104 64        		.byte	0x64
 2581 0105 5D00 0000 		.long	.LVL9-1-.Ltext0
 2582 0109 A000 0000 		.long	.LFE19-.Ltext0
 2583 010d 0400      		.word	0x4
 2584 010f F3        		.byte	0xf3
 2585 0110 01        		.uleb128 0x1
 2586 0111 64        		.byte	0x64
 2587 0112 9F        		.byte	0x9f
 2588 0113 0000 0000 		.long	0
 2589 0117 0000 0000 		.long	0
 2590               	.LLST6:
 2591 011b 1600 0000 		.long	.LVL4-.Ltext0
 2592 011f 3E00 0000 		.long	.LVL8-.Ltext0
 2593 0123 0600      		.word	0x6
 2594 0125 62        		.byte	0x62
 2595 0126 93        		.byte	0x93
 2596 0127 01        		.uleb128 0x1
 2597 0128 63        		.byte	0x63
 2598 0129 93        		.byte	0x93
 2599 012a 01        		.uleb128 0x1
 2600 012b 3E00 0000 		.long	.LVL8-.Ltext0
 2601 012f 9E00 0000 		.long	.LVL16-.Ltext0
 2602 0133 0600      		.word	0x6
 2603 0135 5E        		.byte	0x5e
 2604 0136 93        		.byte	0x93
 2605 0137 01        		.uleb128 0x1
 2606 0138 5F        		.byte	0x5f
 2607 0139 93        		.byte	0x93
 2608 013a 01        		.uleb128 0x1
 2609 013b 9E00 0000 		.long	.LVL16-.Ltext0
 2610 013f A000 0000 		.long	.LFE19-.Ltext0
 2611 0143 0400      		.word	0x4
 2612 0145 F3        		.byte	0xf3
 2613 0146 01        		.uleb128 0x1
 2614 0147 62        		.byte	0x62
 2615 0148 9F        		.byte	0x9f
 2616 0149 0000 0000 		.long	0
 2617 014d 0000 0000 		.long	0
 2618               	.LLST7:
 2619 0151 3200 0000 		.long	.LVL6-.Ltext0
 2620 0155 5D00 0000 		.long	.LVL9-1-.Ltext0
 2621 0159 0A00      		.word	0xa
 2622 015b 86        		.byte	0x86
 2623 015c 00        		.sleb128 0
 2624 015d 3F        		.byte	0x3f
 2625 015e 1A        		.byte	0x1a
 2626 015f 31        		.byte	0x31
 2627 0160 24        		.byte	0x24
 2628 0161 80        		.byte	0x80
 2629 0162 00        		.sleb128 0
 2630 0163 21        		.byte	0x21
 2631 0164 9F        		.byte	0x9f
 2632 0165 5D00 0000 		.long	.LVL9-1-.Ltext0
 2633 0169 9A00 0000 		.long	.LVL15-.Ltext0
 2634 016d 0B00      		.word	0xb
GAS LISTING /var/folders/86/8ymzt0g934z5dpmztl89nd000000gn/T//ccd3mB82.s 			page 57


 2635 016f F3        		.byte	0xf3
 2636 0170 01        		.uleb128 0x1
 2637 0171 66        		.byte	0x66
 2638 0172 3F        		.byte	0x3f
 2639 0173 1A        		.byte	0x1a
 2640 0174 31        		.byte	0x31
 2641 0175 24        		.byte	0x24
 2642 0176 80        		.byte	0x80
 2643 0177 00        		.sleb128 0
 2644 0178 21        		.byte	0x21
 2645 0179 9F        		.byte	0x9f
 2646 017a 9A00 0000 		.long	.LVL15-.Ltext0
 2647 017e A000 0000 		.long	.LFE19-.Ltext0
 2648 0182 0E00      		.word	0xe
 2649 0184 F3        		.byte	0xf3
 2650 0185 01        		.uleb128 0x1
 2651 0186 66        		.byte	0x66
 2652 0187 3F        		.byte	0x3f
 2653 0188 1A        		.byte	0x1a
 2654 0189 31        		.byte	0x31
 2655 018a 24        		.byte	0x24
 2656 018b F3        		.byte	0xf3
 2657 018c 01        		.uleb128 0x1
 2658 018d 68        		.byte	0x68
 2659 018e 37        		.byte	0x37
 2660 018f 24        		.byte	0x24
 2661 0190 21        		.byte	0x21
 2662 0191 9F        		.byte	0x9f
 2663 0192 0000 0000 		.long	0
 2664 0196 0000 0000 		.long	0
 2665               	.LLST8:
 2666 019a 3200 0000 		.long	.LVL6-.Ltext0
 2667 019e 5D00 0000 		.long	.LVL9-1-.Ltext0
 2668 01a2 0D00      		.word	0xd
 2669 01a4 86        		.byte	0x86
 2670 01a5 00        		.sleb128 0
 2671 01a6 08        		.byte	0x8
 2672 01a7 FF        		.byte	0xff
 2673 01a8 1A        		.byte	0x1a
 2674 01a9 34        		.byte	0x34
 2675 01aa 26        		.byte	0x26
 2676 01ab 31        		.byte	0x31
 2677 01ac 24        		.byte	0x24
 2678 01ad 80        		.byte	0x80
 2679 01ae 00        		.sleb128 0
 2680 01af 21        		.byte	0x21
 2681 01b0 9F        		.byte	0x9f
 2682 01b1 5D00 0000 		.long	.LVL9-1-.Ltext0
 2683 01b5 9A00 0000 		.long	.LVL15-.Ltext0
 2684 01b9 0E00      		.word	0xe
 2685 01bb F3        		.byte	0xf3
 2686 01bc 01        		.uleb128 0x1
 2687 01bd 66        		.byte	0x66
 2688 01be 08        		.byte	0x8
 2689 01bf FF        		.byte	0xff
 2690 01c0 1A        		.byte	0x1a
 2691 01c1 34        		.byte	0x34
GAS LISTING /var/folders/86/8ymzt0g934z5dpmztl89nd000000gn/T//ccd3mB82.s 			page 58


 2692 01c2 26        		.byte	0x26
 2693 01c3 31        		.byte	0x31
 2694 01c4 24        		.byte	0x24
 2695 01c5 80        		.byte	0x80
 2696 01c6 00        		.sleb128 0
 2697 01c7 21        		.byte	0x21
 2698 01c8 9F        		.byte	0x9f
 2699 01c9 9A00 0000 		.long	.LVL15-.Ltext0
 2700 01cd A000 0000 		.long	.LFE19-.Ltext0
 2701 01d1 1100      		.word	0x11
 2702 01d3 F3        		.byte	0xf3
 2703 01d4 01        		.uleb128 0x1
 2704 01d5 68        		.byte	0x68
 2705 01d6 37        		.byte	0x37
 2706 01d7 24        		.byte	0x24
 2707 01d8 F3        		.byte	0xf3
 2708 01d9 01        		.uleb128 0x1
 2709 01da 66        		.byte	0x66
 2710 01db 08        		.byte	0x8
 2711 01dc FF        		.byte	0xff
 2712 01dd 1A        		.byte	0x1a
 2713 01de 34        		.byte	0x34
 2714 01df 26        		.byte	0x26
 2715 01e0 31        		.byte	0x31
 2716 01e1 24        		.byte	0x24
 2717 01e2 21        		.byte	0x21
 2718 01e3 9F        		.byte	0x9f
 2719 01e4 0000 0000 		.long	0
 2720 01e8 0000 0000 		.long	0
 2721               	.LLST9:
 2722 01ec 7A00 0000 		.long	.LVL10-.Ltext0
 2723 01f0 7E00 0000 		.long	.LVL11-.Ltext0
 2724 01f4 0200      		.word	0x2
 2725 01f6 30        		.byte	0x30
 2726 01f7 9F        		.byte	0x9f
 2727 01f8 7E00 0000 		.long	.LVL11-.Ltext0
 2728 01fc A000 0000 		.long	.LFE19-.Ltext0
 2729 0200 0100      		.word	0x1
 2730 0202 68        		.byte	0x68
 2731 0203 0000 0000 		.long	0
 2732 0207 0000 0000 		.long	0
 2733               	.LLST10:
 2734 020b 3200 0000 		.long	.LVL6-.Ltext0
 2735 020f 3E00 0000 		.long	.LVL8-.Ltext0
 2736 0213 0600      		.word	0x6
 2737 0215 62        		.byte	0x62
 2738 0216 93        		.byte	0x93
 2739 0217 01        		.uleb128 0x1
 2740 0218 63        		.byte	0x63
 2741 0219 93        		.byte	0x93
 2742 021a 01        		.uleb128 0x1
 2743 021b 3E00 0000 		.long	.LVL8-.Ltext0
 2744 021f 9E00 0000 		.long	.LVL16-.Ltext0
 2745 0223 0600      		.word	0x6
 2746 0225 5E        		.byte	0x5e
 2747 0226 93        		.byte	0x93
 2748 0227 01        		.uleb128 0x1
GAS LISTING /var/folders/86/8ymzt0g934z5dpmztl89nd000000gn/T//ccd3mB82.s 			page 59


 2749 0228 5F        		.byte	0x5f
 2750 0229 93        		.byte	0x93
 2751 022a 01        		.uleb128 0x1
 2752 022b 9E00 0000 		.long	.LVL16-.Ltext0
 2753 022f A000 0000 		.long	.LFE19-.Ltext0
 2754 0233 0400      		.word	0x4
 2755 0235 F3        		.byte	0xf3
 2756 0236 01        		.uleb128 0x1
 2757 0237 62        		.byte	0x62
 2758 0238 9F        		.byte	0x9f
 2759 0239 0000 0000 		.long	0
 2760 023d 0000 0000 		.long	0
 2761               	.LLST11:
 2762 0241 5E00 0000 		.long	.LVL9-.Ltext0
 2763 0245 9E00 0000 		.long	.LVL16-.Ltext0
 2764 0249 0600      		.word	0x6
 2765 024b 5E        		.byte	0x5e
 2766 024c 93        		.byte	0x93
 2767 024d 01        		.uleb128 0x1
 2768 024e 5F        		.byte	0x5f
 2769 024f 93        		.byte	0x93
 2770 0250 01        		.uleb128 0x1
 2771 0251 9E00 0000 		.long	.LVL16-.Ltext0
 2772 0255 A000 0000 		.long	.LFE19-.Ltext0
 2773 0259 0400      		.word	0x4
 2774 025b F3        		.byte	0xf3
 2775 025c 01        		.uleb128 0x1
 2776 025d 62        		.byte	0x62
 2777 025e 9F        		.byte	0x9f
 2778 025f 0000 0000 		.long	0
 2779 0263 0000 0000 		.long	0
 2780               	.LLST12:
 2781 0267 8200 0000 		.long	.LVL12-.Ltext0
 2782 026b 8E00 0000 		.long	.LVL14-.Ltext0
 2783 026f 0600      		.word	0x6
 2784 0271 9E        		.byte	0x9e
 2785 0272 04        		.uleb128 0x4
 2786 0273 0000 2041 		.long	0x41200000
 2787 0277 0000 0000 		.long	0
 2788 027b 0000 0000 		.long	0
 2789               	.LLST13:
 2790 027f 8200 0000 		.long	.LVL12-.Ltext0
 2791 0283 8E00 0000 		.long	.LVL14-.Ltext0
 2792 0287 0600      		.word	0x6
 2793 0289 9E        		.byte	0x9e
 2794 028a 04        		.uleb128 0x4
 2795 028b 0000 A042 		.long	0x42a00000
 2796 028f 0000 0000 		.long	0
 2797 0293 0000 0000 		.long	0
 2798               	.LLST14:
 2799 0297 8200 0000 		.long	.LVL12-.Ltext0
 2800 029b 8E00 0000 		.long	.LVL14-.Ltext0
 2801 029f 0300      		.word	0x3
 2802 02a1 08        		.byte	0x8
 2803 02a2 50        		.byte	0x50
 2804 02a3 9F        		.byte	0x9f
 2805 02a4 0000 0000 		.long	0
GAS LISTING /var/folders/86/8ymzt0g934z5dpmztl89nd000000gn/T//ccd3mB82.s 			page 60


 2806 02a8 0000 0000 		.long	0
 2807               	.LLST15:
 2808 02ac A000 0000 		.long	.LVL17-.Ltext0
 2809 02b0 A800 0000 		.long	.LVL18-.Ltext0
 2810 02b4 0600      		.word	0x6
 2811 02b6 68        		.byte	0x68
 2812 02b7 93        		.byte	0x93
 2813 02b8 01        		.uleb128 0x1
 2814 02b9 69        		.byte	0x69
 2815 02ba 93        		.byte	0x93
 2816 02bb 01        		.uleb128 0x1
 2817 02bc A800 0000 		.long	.LVL18-.Ltext0
 2818 02c0 AB00 0000 		.long	.LVL19-1-.Ltext0
 2819 02c4 0600      		.word	0x6
 2820 02c6 62        		.byte	0x62
 2821 02c7 93        		.byte	0x93
 2822 02c8 01        		.uleb128 0x1
 2823 02c9 63        		.byte	0x63
 2824 02ca 93        		.byte	0x93
 2825 02cb 01        		.uleb128 0x1
 2826 02cc AB00 0000 		.long	.LVL19-1-.Ltext0
 2827 02d0 AC00 0000 		.long	.LFE9-.Ltext0
 2828 02d4 0400      		.word	0x4
 2829 02d6 F3        		.byte	0xf3
 2830 02d7 01        		.uleb128 0x1
 2831 02d8 68        		.byte	0x68
 2832 02d9 9F        		.byte	0x9f
 2833 02da 0000 0000 		.long	0
 2834 02de 0000 0000 		.long	0
 2835               	.LLST16:
 2836 02e2 AC00 0000 		.long	.LVL20-.Ltext0
 2837 02e6 B400 0000 		.long	.LVL21-.Ltext0
 2838 02ea 0600      		.word	0x6
 2839 02ec 68        		.byte	0x68
 2840 02ed 93        		.byte	0x93
 2841 02ee 01        		.uleb128 0x1
 2842 02ef 69        		.byte	0x69
 2843 02f0 93        		.byte	0x93
 2844 02f1 01        		.uleb128 0x1
 2845 02f2 B400 0000 		.long	.LVL21-.Ltext0
 2846 02f6 B700 0000 		.long	.LVL22-1-.Ltext0
 2847 02fa 0600      		.word	0x6
 2848 02fc 62        		.byte	0x62
 2849 02fd 93        		.byte	0x93
 2850 02fe 01        		.uleb128 0x1
 2851 02ff 63        		.byte	0x63
 2852 0300 93        		.byte	0x93
 2853 0301 01        		.uleb128 0x1
 2854 0302 B700 0000 		.long	.LVL22-1-.Ltext0
 2855 0306 B800 0000 		.long	.LFE10-.Ltext0
 2856 030a 0400      		.word	0x4
 2857 030c F3        		.byte	0xf3
 2858 030d 01        		.uleb128 0x1
 2859 030e 68        		.byte	0x68
 2860 030f 9F        		.byte	0x9f
 2861 0310 0000 0000 		.long	0
 2862 0314 0000 0000 		.long	0
GAS LISTING /var/folders/86/8ymzt0g934z5dpmztl89nd000000gn/T//ccd3mB82.s 			page 61


 2863               	.LLST17:
 2864 0318 B800 0000 		.long	.LVL23-.Ltext0
 2865 031c BE00 0000 		.long	.LVL26-.Ltext0
 2866 0320 0100      		.word	0x1
 2867 0322 68        		.byte	0x68
 2868 0323 BE00 0000 		.long	.LVL26-.Ltext0
 2869 0327 CA00 0000 		.long	.LFE11-.Ltext0
 2870 032b 0400      		.word	0x4
 2871 032d F3        		.byte	0xf3
 2872 032e 01        		.uleb128 0x1
 2873 032f 68        		.byte	0x68
 2874 0330 9F        		.byte	0x9f
 2875 0331 0000 0000 		.long	0
 2876 0335 0000 0000 		.long	0
 2877               	.LLST18:
 2878 0339 B800 0000 		.long	.LVL23-.Ltext0
 2879 033d BC00 0000 		.long	.LVL25-.Ltext0
 2880 0341 0100      		.word	0x1
 2881 0343 66        		.byte	0x66
 2882 0344 BC00 0000 		.long	.LVL25-.Ltext0
 2883 0348 CA00 0000 		.long	.LFE11-.Ltext0
 2884 034c 0400      		.word	0x4
 2885 034e F3        		.byte	0xf3
 2886 034f 01        		.uleb128 0x1
 2887 0350 66        		.byte	0x66
 2888 0351 9F        		.byte	0x9f
 2889 0352 0000 0000 		.long	0
 2890 0356 0000 0000 		.long	0
 2891               	.LLST19:
 2892 035a B800 0000 		.long	.LVL23-.Ltext0
 2893 035e C200 0000 		.long	.LVL27-.Ltext0
 2894 0362 0600      		.word	0x6
 2895 0364 64        		.byte	0x64
 2896 0365 93        		.byte	0x93
 2897 0366 01        		.uleb128 0x1
 2898 0367 65        		.byte	0x65
 2899 0368 93        		.byte	0x93
 2900 0369 01        		.uleb128 0x1
 2901 036a C200 0000 		.long	.LVL27-.Ltext0
 2902 036e C900 0000 		.long	.LVL28-1-.Ltext0
 2903 0372 0600      		.word	0x6
 2904 0374 62        		.byte	0x62
 2905 0375 93        		.byte	0x93
 2906 0376 01        		.uleb128 0x1
 2907 0377 63        		.byte	0x63
 2908 0378 93        		.byte	0x93
 2909 0379 01        		.uleb128 0x1
 2910 037a C900 0000 		.long	.LVL28-1-.Ltext0
 2911 037e CA00 0000 		.long	.LFE11-.Ltext0
 2912 0382 0400      		.word	0x4
 2913 0384 F3        		.byte	0xf3
 2914 0385 01        		.uleb128 0x1
 2915 0386 64        		.byte	0x64
 2916 0387 9F        		.byte	0x9f
 2917 0388 0000 0000 		.long	0
 2918 038c 0000 0000 		.long	0
 2919               	.LLST20:
GAS LISTING /var/folders/86/8ymzt0g934z5dpmztl89nd000000gn/T//ccd3mB82.s 			page 62


 2920 0390 BA00 0000 		.long	.LVL24-.Ltext0
 2921 0394 BC00 0000 		.long	.LVL25-.Ltext0
 2922 0398 0A00      		.word	0xa
 2923 039a 88        		.byte	0x88
 2924 039b 00        		.sleb128 0
 2925 039c 31        		.byte	0x31
 2926 039d 24        		.byte	0x24
 2927 039e 86        		.byte	0x86
 2928 039f 00        		.sleb128 0
 2929 03a0 21        		.byte	0x21
 2930 03a1 34        		.byte	0x34
 2931 03a2 21        		.byte	0x21
 2932 03a3 9F        		.byte	0x9f
 2933 03a4 BC00 0000 		.long	.LVL25-.Ltext0
 2934 03a8 BE00 0000 		.long	.LVL26-.Ltext0
 2935 03ac 0B00      		.word	0xb
 2936 03ae 88        		.byte	0x88
 2937 03af 00        		.sleb128 0
 2938 03b0 31        		.byte	0x31
 2939 03b1 24        		.byte	0x24
 2940 03b2 F3        		.byte	0xf3
 2941 03b3 01        		.uleb128 0x1
 2942 03b4 66        		.byte	0x66
 2943 03b5 21        		.byte	0x21
 2944 03b6 34        		.byte	0x34
 2945 03b7 21        		.byte	0x21
 2946 03b8 9F        		.byte	0x9f
 2947 03b9 BE00 0000 		.long	.LVL26-.Ltext0
 2948 03bd CA00 0000 		.long	.LFE11-.Ltext0
 2949 03c1 0C00      		.word	0xc
 2950 03c3 F3        		.byte	0xf3
 2951 03c4 01        		.uleb128 0x1
 2952 03c5 68        		.byte	0x68
 2953 03c6 31        		.byte	0x31
 2954 03c7 24        		.byte	0x24
 2955 03c8 F3        		.byte	0xf3
 2956 03c9 01        		.uleb128 0x1
 2957 03ca 66        		.byte	0x66
 2958 03cb 21        		.byte	0x21
 2959 03cc 34        		.byte	0x34
 2960 03cd 21        		.byte	0x21
 2961 03ce 9F        		.byte	0x9f
 2962 03cf 0000 0000 		.long	0
 2963 03d3 0000 0000 		.long	0
 2964               	.LLST21:
 2965 03d7 CA00 0000 		.long	.LVL29-.Ltext0
 2966 03db D800 0000 		.long	.LVL32-.Ltext0
 2967 03df 0100      		.word	0x1
 2968 03e1 68        		.byte	0x68
 2969 03e2 D800 0000 		.long	.LVL32-.Ltext0
 2970 03e6 E200 0000 		.long	.LFE12-.Ltext0
 2971 03ea 0400      		.word	0x4
 2972 03ec F3        		.byte	0xf3
 2973 03ed 01        		.uleb128 0x1
 2974 03ee 68        		.byte	0x68
 2975 03ef 9F        		.byte	0x9f
 2976 03f0 0000 0000 		.long	0
GAS LISTING /var/folders/86/8ymzt0g934z5dpmztl89nd000000gn/T//ccd3mB82.s 			page 63


 2977 03f4 0000 0000 		.long	0
 2978               	.LLST22:
 2979 03f8 CA00 0000 		.long	.LVL29-.Ltext0
 2980 03fc CE00 0000 		.long	.LVL31-.Ltext0
 2981 0400 0100      		.word	0x1
 2982 0402 66        		.byte	0x66
 2983 0403 CE00 0000 		.long	.LVL31-.Ltext0
 2984 0407 E200 0000 		.long	.LFE12-.Ltext0
 2985 040b 0400      		.word	0x4
 2986 040d F3        		.byte	0xf3
 2987 040e 01        		.uleb128 0x1
 2988 040f 66        		.byte	0x66
 2989 0410 9F        		.byte	0x9f
 2990 0411 0000 0000 		.long	0
 2991 0415 0000 0000 		.long	0
 2992               	.LLST23:
 2993 0419 CA00 0000 		.long	.LVL29-.Ltext0
 2994 041d CC00 0000 		.long	.LVL30-.Ltext0
 2995 0421 0100      		.word	0x1
 2996 0423 64        		.byte	0x64
 2997 0424 CC00 0000 		.long	.LVL30-.Ltext0
 2998 0428 E200 0000 		.long	.LFE12-.Ltext0
 2999 042c 0400      		.word	0x4
 3000 042e F3        		.byte	0xf3
 3001 042f 01        		.uleb128 0x1
 3002 0430 64        		.byte	0x64
 3003 0431 9F        		.byte	0x9f
 3004 0432 0000 0000 		.long	0
 3005 0436 0000 0000 		.long	0
 3006               	.LLST24:
 3007 043a CA00 0000 		.long	.LVL29-.Ltext0
 3008 043e E100 0000 		.long	.LVL33-1-.Ltext0
 3009 0442 0600      		.word	0x6
 3010 0444 62        		.byte	0x62
 3011 0445 93        		.byte	0x93
 3012 0446 01        		.uleb128 0x1
 3013 0447 63        		.byte	0x63
 3014 0448 93        		.byte	0x93
 3015 0449 01        		.uleb128 0x1
 3016 044a E100 0000 		.long	.LVL33-1-.Ltext0
 3017 044e E200 0000 		.long	.LFE12-.Ltext0
 3018 0452 0400      		.word	0x4
 3019 0454 F3        		.byte	0xf3
 3020 0455 01        		.uleb128 0x1
 3021 0456 62        		.byte	0x62
 3022 0457 9F        		.byte	0x9f
 3023 0458 0000 0000 		.long	0
 3024 045c 0000 0000 		.long	0
 3025               	.LLST25:
 3026 0460 CA00 0000 		.long	.LVL29-.Ltext0
 3027 0464 CC00 0000 		.long	.LVL30-.Ltext0
 3028 0468 0F00      		.word	0xf
 3029 046a 86        		.byte	0x86
 3030 046b 00        		.sleb128 0
 3031 046c 31        		.byte	0x31
 3032 046d 24        		.byte	0x24
 3033 046e 88        		.byte	0x88
GAS LISTING /var/folders/86/8ymzt0g934z5dpmztl89nd000000gn/T//ccd3mB82.s 			page 64


 3034 046f 00        		.sleb128 0
 3035 0470 32        		.byte	0x32
 3036 0471 24        		.byte	0x24
 3037 0472 21        		.byte	0x21
 3038 0473 84        		.byte	0x84
 3039 0474 00        		.sleb128 0
 3040 0475 21        		.byte	0x21
 3041 0476 38        		.byte	0x38
 3042 0477 21        		.byte	0x21
 3043 0478 9F        		.byte	0x9f
 3044 0479 CC00 0000 		.long	.LVL30-.Ltext0
 3045 047d CE00 0000 		.long	.LVL31-.Ltext0
 3046 0481 1000      		.word	0x10
 3047 0483 86        		.byte	0x86
 3048 0484 00        		.sleb128 0
 3049 0485 31        		.byte	0x31
 3050 0486 24        		.byte	0x24
 3051 0487 88        		.byte	0x88
 3052 0488 00        		.sleb128 0
 3053 0489 32        		.byte	0x32
 3054 048a 24        		.byte	0x24
 3055 048b 21        		.byte	0x21
 3056 048c F3        		.byte	0xf3
 3057 048d 01        		.uleb128 0x1
 3058 048e 64        		.byte	0x64
 3059 048f 21        		.byte	0x21
 3060 0490 38        		.byte	0x38
 3061 0491 21        		.byte	0x21
 3062 0492 9F        		.byte	0x9f
 3063 0493 CE00 0000 		.long	.LVL31-.Ltext0
 3064 0497 D800 0000 		.long	.LVL32-.Ltext0
 3065 049b 1100      		.word	0x11
 3066 049d F3        		.byte	0xf3
 3067 049e 01        		.uleb128 0x1
 3068 049f 66        		.byte	0x66
 3069 04a0 31        		.byte	0x31
 3070 04a1 24        		.byte	0x24
 3071 04a2 88        		.byte	0x88
 3072 04a3 00        		.sleb128 0
 3073 04a4 32        		.byte	0x32
 3074 04a5 24        		.byte	0x24
 3075 04a6 21        		.byte	0x21
 3076 04a7 F3        		.byte	0xf3
 3077 04a8 01        		.uleb128 0x1
 3078 04a9 64        		.byte	0x64
 3079 04aa 21        		.byte	0x21
 3080 04ab 38        		.byte	0x38
 3081 04ac 21        		.byte	0x21
 3082 04ad 9F        		.byte	0x9f
 3083 04ae D800 0000 		.long	.LVL32-.Ltext0
 3084 04b2 E200 0000 		.long	.LFE12-.Ltext0
 3085 04b6 1200      		.word	0x12
 3086 04b8 F3        		.byte	0xf3
 3087 04b9 01        		.uleb128 0x1
 3088 04ba 66        		.byte	0x66
 3089 04bb 31        		.byte	0x31
 3090 04bc 24        		.byte	0x24
GAS LISTING /var/folders/86/8ymzt0g934z5dpmztl89nd000000gn/T//ccd3mB82.s 			page 65


 3091 04bd F3        		.byte	0xf3
 3092 04be 01        		.uleb128 0x1
 3093 04bf 68        		.byte	0x68
 3094 04c0 32        		.byte	0x32
 3095 04c1 24        		.byte	0x24
 3096 04c2 21        		.byte	0x21
 3097 04c3 F3        		.byte	0xf3
 3098 04c4 01        		.uleb128 0x1
 3099 04c5 64        		.byte	0x64
 3100 04c6 21        		.byte	0x21
 3101 04c7 38        		.byte	0x38
 3102 04c8 21        		.byte	0x21
 3103 04c9 9F        		.byte	0x9f
 3104 04ca 0000 0000 		.long	0
 3105 04ce 0000 0000 		.long	0
 3106               	.LLST26:
 3107 04d2 E200 0000 		.long	.LVL34-.Ltext0
 3108 04d6 F600 0000 		.long	.LVL38-.Ltext0
 3109 04da 0100      		.word	0x1
 3110 04dc 68        		.byte	0x68
 3111 04dd F600 0000 		.long	.LVL38-.Ltext0
 3112 04e1 0001 0000 		.long	.LFE13-.Ltext0
 3113 04e5 0400      		.word	0x4
 3114 04e7 F3        		.byte	0xf3
 3115 04e8 01        		.uleb128 0x1
 3116 04e9 68        		.byte	0x68
 3117 04ea 9F        		.byte	0x9f
 3118 04eb 0000 0000 		.long	0
 3119 04ef 0000 0000 		.long	0
 3120               	.LLST27:
 3121 04f3 E200 0000 		.long	.LVL34-.Ltext0
 3122 04f7 EC00 0000 		.long	.LVL37-.Ltext0
 3123 04fb 0100      		.word	0x1
 3124 04fd 66        		.byte	0x66
 3125 04fe EC00 0000 		.long	.LVL37-.Ltext0
 3126 0502 0001 0000 		.long	.LFE13-.Ltext0
 3127 0506 0400      		.word	0x4
 3128 0508 F3        		.byte	0xf3
 3129 0509 01        		.uleb128 0x1
 3130 050a 66        		.byte	0x66
 3131 050b 9F        		.byte	0x9f
 3132 050c 0000 0000 		.long	0
 3133 0510 0000 0000 		.long	0
 3134               	.LLST28:
 3135 0514 E200 0000 		.long	.LVL34-.Ltext0
 3136 0518 E600 0000 		.long	.LVL36-.Ltext0
 3137 051c 0600      		.word	0x6
 3138 051e 64        		.byte	0x64
 3139 051f 93        		.byte	0x93
 3140 0520 01        		.uleb128 0x1
 3141 0521 65        		.byte	0x65
 3142 0522 93        		.byte	0x93
 3143 0523 01        		.uleb128 0x1
 3144 0524 E600 0000 		.long	.LVL36-.Ltext0
 3145 0528 FF00 0000 		.long	.LVL39-1-.Ltext0
 3146 052c 0600      		.word	0x6
 3147 052e 62        		.byte	0x62
GAS LISTING /var/folders/86/8ymzt0g934z5dpmztl89nd000000gn/T//ccd3mB82.s 			page 66


 3148 052f 93        		.byte	0x93
 3149 0530 01        		.uleb128 0x1
 3150 0531 63        		.byte	0x63
 3151 0532 93        		.byte	0x93
 3152 0533 01        		.uleb128 0x1
 3153 0534 FF00 0000 		.long	.LVL39-1-.Ltext0
 3154 0538 0001 0000 		.long	.LFE13-.Ltext0
 3155 053c 0400      		.word	0x4
 3156 053e F3        		.byte	0xf3
 3157 053f 01        		.uleb128 0x1
 3158 0540 64        		.byte	0x64
 3159 0541 9F        		.byte	0x9f
 3160 0542 0000 0000 		.long	0
 3161 0546 0000 0000 		.long	0
 3162               	.LLST29:
 3163 054a E400 0000 		.long	.LVL35-.Ltext0
 3164 054e EC00 0000 		.long	.LVL37-.Ltext0
 3165 0552 0C00      		.word	0xc
 3166 0554 86        		.byte	0x86
 3167 0555 00        		.sleb128 0
 3168 0556 32        		.byte	0x32
 3169 0557 24        		.byte	0x24
 3170 0558 88        		.byte	0x88
 3171 0559 00        		.sleb128 0
 3172 055a 33        		.byte	0x33
 3173 055b 24        		.byte	0x24
 3174 055c 21        		.byte	0x21
 3175 055d 40        		.byte	0x40
 3176 055e 21        		.byte	0x21
 3177 055f 9F        		.byte	0x9f
 3178 0560 EC00 0000 		.long	.LVL37-.Ltext0
 3179 0564 F600 0000 		.long	.LVL38-.Ltext0
 3180 0568 0D00      		.word	0xd
 3181 056a F3        		.byte	0xf3
 3182 056b 01        		.uleb128 0x1
 3183 056c 66        		.byte	0x66
 3184 056d 32        		.byte	0x32
 3185 056e 24        		.byte	0x24
 3186 056f 88        		.byte	0x88
 3187 0570 00        		.sleb128 0
 3188 0571 33        		.byte	0x33
 3189 0572 24        		.byte	0x24
 3190 0573 21        		.byte	0x21
 3191 0574 40        		.byte	0x40
 3192 0575 21        		.byte	0x21
 3193 0576 9F        		.byte	0x9f
 3194 0577 F600 0000 		.long	.LVL38-.Ltext0
 3195 057b 0001 0000 		.long	.LFE13-.Ltext0
 3196 057f 0E00      		.word	0xe
 3197 0581 F3        		.byte	0xf3
 3198 0582 01        		.uleb128 0x1
 3199 0583 66        		.byte	0x66
 3200 0584 32        		.byte	0x32
 3201 0585 24        		.byte	0x24
 3202 0586 F3        		.byte	0xf3
 3203 0587 01        		.uleb128 0x1
 3204 0588 68        		.byte	0x68
GAS LISTING /var/folders/86/8ymzt0g934z5dpmztl89nd000000gn/T//ccd3mB82.s 			page 67


 3205 0589 33        		.byte	0x33
 3206 058a 24        		.byte	0x24
 3207 058b 21        		.byte	0x21
 3208 058c 40        		.byte	0x40
 3209 058d 21        		.byte	0x21
 3210 058e 9F        		.byte	0x9f
 3211 058f 0000 0000 		.long	0
 3212 0593 0000 0000 		.long	0
 3213               	.LLST30:
 3214 0597 0001 0000 		.long	.LVL40-.Ltext0
 3215 059b 1401 0000 		.long	.LVL44-.Ltext0
 3216 059f 0100      		.word	0x1
 3217 05a1 68        		.byte	0x68
 3218 05a2 1401 0000 		.long	.LVL44-.Ltext0
 3219 05a6 1E01 0000 		.long	.LFE14-.Ltext0
 3220 05aa 0400      		.word	0x4
 3221 05ac F3        		.byte	0xf3
 3222 05ad 01        		.uleb128 0x1
 3223 05ae 68        		.byte	0x68
 3224 05af 9F        		.byte	0x9f
 3225 05b0 0000 0000 		.long	0
 3226 05b4 0000 0000 		.long	0
 3227               	.LLST31:
 3228 05b8 0001 0000 		.long	.LVL40-.Ltext0
 3229 05bc 0A01 0000 		.long	.LVL43-.Ltext0
 3230 05c0 0100      		.word	0x1
 3231 05c2 66        		.byte	0x66
 3232 05c3 0A01 0000 		.long	.LVL43-.Ltext0
 3233 05c7 1E01 0000 		.long	.LFE14-.Ltext0
 3234 05cb 0400      		.word	0x4
 3235 05cd F3        		.byte	0xf3
 3236 05ce 01        		.uleb128 0x1
 3237 05cf 66        		.byte	0x66
 3238 05d0 9F        		.byte	0x9f
 3239 05d1 0000 0000 		.long	0
 3240 05d5 0000 0000 		.long	0
 3241               	.LLST32:
 3242 05d9 0001 0000 		.long	.LVL40-.Ltext0
 3243 05dd 0401 0000 		.long	.LVL42-.Ltext0
 3244 05e1 0600      		.word	0x6
 3245 05e3 64        		.byte	0x64
 3246 05e4 93        		.byte	0x93
 3247 05e5 01        		.uleb128 0x1
 3248 05e6 65        		.byte	0x65
 3249 05e7 93        		.byte	0x93
 3250 05e8 01        		.uleb128 0x1
 3251 05e9 0401 0000 		.long	.LVL42-.Ltext0
 3252 05ed 1D01 0000 		.long	.LVL45-1-.Ltext0
 3253 05f1 0600      		.word	0x6
 3254 05f3 62        		.byte	0x62
 3255 05f4 93        		.byte	0x93
 3256 05f5 01        		.uleb128 0x1
 3257 05f6 63        		.byte	0x63
 3258 05f7 93        		.byte	0x93
 3259 05f8 01        		.uleb128 0x1
 3260 05f9 1D01 0000 		.long	.LVL45-1-.Ltext0
 3261 05fd 1E01 0000 		.long	.LFE14-.Ltext0
GAS LISTING /var/folders/86/8ymzt0g934z5dpmztl89nd000000gn/T//ccd3mB82.s 			page 68


 3262 0601 0400      		.word	0x4
 3263 0603 F3        		.byte	0xf3
 3264 0604 01        		.uleb128 0x1
 3265 0605 64        		.byte	0x64
 3266 0606 9F        		.byte	0x9f
 3267 0607 0000 0000 		.long	0
 3268 060b 0000 0000 		.long	0
 3269               	.LLST33:
 3270 060f 0201 0000 		.long	.LVL41-.Ltext0
 3271 0613 0A01 0000 		.long	.LVL43-.Ltext0
 3272 0617 0D00      		.word	0xd
 3273 0619 86        		.byte	0x86
 3274 061a 00        		.sleb128 0
 3275 061b 33        		.byte	0x33
 3276 061c 24        		.byte	0x24
 3277 061d 88        		.byte	0x88
 3278 061e 00        		.sleb128 0
 3279 061f 34        		.byte	0x34
 3280 0620 24        		.byte	0x24
 3281 0621 21        		.byte	0x21
 3282 0622 08        		.byte	0x8
 3283 0623 20        		.byte	0x20
 3284 0624 21        		.byte	0x21
 3285 0625 9F        		.byte	0x9f
 3286 0626 0A01 0000 		.long	.LVL43-.Ltext0
 3287 062a 1401 0000 		.long	.LVL44-.Ltext0
 3288 062e 0E00      		.word	0xe
 3289 0630 F3        		.byte	0xf3
 3290 0631 01        		.uleb128 0x1
 3291 0632 66        		.byte	0x66
 3292 0633 33        		.byte	0x33
 3293 0634 24        		.byte	0x24
 3294 0635 88        		.byte	0x88
 3295 0636 00        		.sleb128 0
 3296 0637 34        		.byte	0x34
 3297 0638 24        		.byte	0x24
 3298 0639 21        		.byte	0x21
 3299 063a 08        		.byte	0x8
 3300 063b 20        		.byte	0x20
 3301 063c 21        		.byte	0x21
 3302 063d 9F        		.byte	0x9f
 3303 063e 1401 0000 		.long	.LVL44-.Ltext0
 3304 0642 1E01 0000 		.long	.LFE14-.Ltext0
 3305 0646 0F00      		.word	0xf
 3306 0648 F3        		.byte	0xf3
 3307 0649 01        		.uleb128 0x1
 3308 064a 66        		.byte	0x66
 3309 064b 33        		.byte	0x33
 3310 064c 24        		.byte	0x24
 3311 064d F3        		.byte	0xf3
 3312 064e 01        		.uleb128 0x1
 3313 064f 68        		.byte	0x68
 3314 0650 34        		.byte	0x34
 3315 0651 24        		.byte	0x24
 3316 0652 21        		.byte	0x21
 3317 0653 08        		.byte	0x8
 3318 0654 20        		.byte	0x20
GAS LISTING /var/folders/86/8ymzt0g934z5dpmztl89nd000000gn/T//ccd3mB82.s 			page 69


 3319 0655 21        		.byte	0x21
 3320 0656 9F        		.byte	0x9f
 3321 0657 0000 0000 		.long	0
 3322 065b 0000 0000 		.long	0
 3323               	.LLST34:
 3324 065f 1E01 0000 		.long	.LVL46-.Ltext0
 3325 0663 2A01 0000 		.long	.LVL50-.Ltext0
 3326 0667 0100      		.word	0x1
 3327 0669 68        		.byte	0x68
 3328 066a 2A01 0000 		.long	.LVL50-.Ltext0
 3329 066e 2E01 0000 		.long	.LFE15-.Ltext0
 3330 0672 0400      		.word	0x4
 3331 0674 F3        		.byte	0xf3
 3332 0675 01        		.uleb128 0x1
 3333 0676 68        		.byte	0x68
 3334 0677 9F        		.byte	0x9f
 3335 0678 0000 0000 		.long	0
 3336 067c 0000 0000 		.long	0
 3337               	.LLST35:
 3338 0680 1E01 0000 		.long	.LVL46-.Ltext0
 3339 0684 2201 0000 		.long	.LVL48-.Ltext0
 3340 0688 0600      		.word	0x6
 3341 068a 66        		.byte	0x66
 3342 068b 93        		.byte	0x93
 3343 068c 01        		.uleb128 0x1
 3344 068d 67        		.byte	0x67
 3345 068e 93        		.byte	0x93
 3346 068f 01        		.uleb128 0x1
 3347 0690 2201 0000 		.long	.LVL48-.Ltext0
 3348 0694 2D01 0000 		.long	.LVL51-1-.Ltext0
 3349 0698 0600      		.word	0x6
 3350 069a 62        		.byte	0x62
 3351 069b 93        		.byte	0x93
 3352 069c 01        		.uleb128 0x1
 3353 069d 63        		.byte	0x63
 3354 069e 93        		.byte	0x93
 3355 069f 01        		.uleb128 0x1
 3356 06a0 2D01 0000 		.long	.LVL51-1-.Ltext0
 3357 06a4 2E01 0000 		.long	.LFE15-.Ltext0
 3358 06a8 0400      		.word	0x4
 3359 06aa F3        		.byte	0xf3
 3360 06ab 01        		.uleb128 0x1
 3361 06ac 66        		.byte	0x66
 3362 06ad 9F        		.byte	0x9f
 3363 06ae 0000 0000 		.long	0
 3364 06b2 0000 0000 		.long	0
 3365               	.LLST36:
 3366 06b6 2001 0000 		.long	.LVL47-.Ltext0
 3367 06ba 2601 0000 		.long	.LVL49-.Ltext0
 3368 06be 0900      		.word	0x9
 3369 06c0 88        		.byte	0x88
 3370 06c1 00        		.sleb128 0
 3371 06c2 08        		.byte	0x8
 3372 06c3 3F        		.byte	0x3f
 3373 06c4 1A        		.byte	0x1a
 3374 06c5 08        		.byte	0x8
 3375 06c6 40        		.byte	0x40
GAS LISTING /var/folders/86/8ymzt0g934z5dpmztl89nd000000gn/T//ccd3mB82.s 			page 70


 3376 06c7 21        		.byte	0x21
 3377 06c8 9F        		.byte	0x9f
 3378 06c9 2601 0000 		.long	.LVL49-.Ltext0
 3379 06cd 2D01 0000 		.long	.LVL51-1-.Ltext0
 3380 06d1 0100      		.word	0x1
 3381 06d3 66        		.byte	0x66
 3382 06d4 2D01 0000 		.long	.LVL51-1-.Ltext0
 3383 06d8 2E01 0000 		.long	.LFE15-.Ltext0
 3384 06dc 0A00      		.word	0xa
 3385 06de F3        		.byte	0xf3
 3386 06df 01        		.uleb128 0x1
 3387 06e0 68        		.byte	0x68
 3388 06e1 08        		.byte	0x8
 3389 06e2 3F        		.byte	0x3f
 3390 06e3 1A        		.byte	0x1a
 3391 06e4 08        		.byte	0x8
 3392 06e5 40        		.byte	0x40
 3393 06e6 21        		.byte	0x21
 3394 06e7 9F        		.byte	0x9f
 3395 06e8 0000 0000 		.long	0
 3396 06ec 0000 0000 		.long	0
 3397               	.LLST37:
 3398 06f0 2E01 0000 		.long	.LVL52-.Ltext0
 3399 06f4 3801 0000 		.long	.LVL56-.Ltext0
 3400 06f8 0100      		.word	0x1
 3401 06fa 68        		.byte	0x68
 3402 06fb 3801 0000 		.long	.LVL56-.Ltext0
 3403 06ff 3C01 0000 		.long	.LFE16-.Ltext0
 3404 0703 0400      		.word	0x4
 3405 0705 F3        		.byte	0xf3
 3406 0706 01        		.uleb128 0x1
 3407 0707 68        		.byte	0x68
 3408 0708 9F        		.byte	0x9f
 3409 0709 0000 0000 		.long	0
 3410 070d 0000 0000 		.long	0
 3411               	.LLST38:
 3412 0711 2E01 0000 		.long	.LVL52-.Ltext0
 3413 0715 3201 0000 		.long	.LVL54-.Ltext0
 3414 0719 0600      		.word	0x6
 3415 071b 66        		.byte	0x66
 3416 071c 93        		.byte	0x93
 3417 071d 01        		.uleb128 0x1
 3418 071e 67        		.byte	0x67
 3419 071f 93        		.byte	0x93
 3420 0720 01        		.uleb128 0x1
 3421 0721 3201 0000 		.long	.LVL54-.Ltext0
 3422 0725 3B01 0000 		.long	.LVL57-1-.Ltext0
 3423 0729 0600      		.word	0x6
 3424 072b 62        		.byte	0x62
 3425 072c 93        		.byte	0x93
 3426 072d 01        		.uleb128 0x1
 3427 072e 63        		.byte	0x63
 3428 072f 93        		.byte	0x93
 3429 0730 01        		.uleb128 0x1
 3430 0731 3B01 0000 		.long	.LVL57-1-.Ltext0
 3431 0735 3C01 0000 		.long	.LFE16-.Ltext0
 3432 0739 0400      		.word	0x4
GAS LISTING /var/folders/86/8ymzt0g934z5dpmztl89nd000000gn/T//ccd3mB82.s 			page 71


 3433 073b F3        		.byte	0xf3
 3434 073c 01        		.uleb128 0x1
 3435 073d 66        		.byte	0x66
 3436 073e 9F        		.byte	0x9f
 3437 073f 0000 0000 		.long	0
 3438 0743 0000 0000 		.long	0
 3439               	.LLST39:
 3440 0747 3001 0000 		.long	.LVL53-.Ltext0
 3441 074b 3401 0000 		.long	.LVL55-.Ltext0
 3442 074f 0600      		.word	0x6
 3443 0751 88        		.byte	0x88
 3444 0752 00        		.sleb128 0
 3445 0753 09        		.byte	0x9
 3446 0754 80        		.byte	0x80
 3447 0755 21        		.byte	0x21
 3448 0756 9F        		.byte	0x9f
 3449 0757 3401 0000 		.long	.LVL55-.Ltext0
 3450 075b 3B01 0000 		.long	.LVL57-1-.Ltext0
 3451 075f 0100      		.word	0x1
 3452 0761 66        		.byte	0x66
 3453 0762 3B01 0000 		.long	.LVL57-1-.Ltext0
 3454 0766 3C01 0000 		.long	.LFE16-.Ltext0
 3455 076a 0700      		.word	0x7
 3456 076c F3        		.byte	0xf3
 3457 076d 01        		.uleb128 0x1
 3458 076e 68        		.byte	0x68
 3459 076f 09        		.byte	0x9
 3460 0770 80        		.byte	0x80
 3461 0771 21        		.byte	0x21
 3462 0772 9F        		.byte	0x9f
 3463 0773 0000 0000 		.long	0
 3464 0777 0000 0000 		.long	0
 3465               	.LLST40:
 3466 077b 3C01 0000 		.long	.LVL58-.Ltext0
 3467 077f 4401 0000 		.long	.LVL60-.Ltext0
 3468 0783 0100      		.word	0x1
 3469 0785 68        		.byte	0x68
 3470 0786 4401 0000 		.long	.LVL60-.Ltext0
 3471 078a 4701 0000 		.long	.LVL61-1-.Ltext0
 3472 078e 0100      		.word	0x1
 3473 0790 66        		.byte	0x66
 3474 0791 4701 0000 		.long	.LVL61-1-.Ltext0
 3475 0795 4801 0000 		.long	.LFE17-.Ltext0
 3476 0799 0400      		.word	0x4
 3477 079b F3        		.byte	0xf3
 3478 079c 01        		.uleb128 0x1
 3479 079d 68        		.byte	0x68
 3480 079e 9F        		.byte	0x9f
 3481 079f 0000 0000 		.long	0
 3482 07a3 0000 0000 		.long	0
 3483               	.LLST41:
 3484 07a7 3C01 0000 		.long	.LVL58-.Ltext0
 3485 07ab 4201 0000 		.long	.LVL59-.Ltext0
 3486 07af 0600      		.word	0x6
 3487 07b1 66        		.byte	0x66
 3488 07b2 93        		.byte	0x93
 3489 07b3 01        		.uleb128 0x1
GAS LISTING /var/folders/86/8ymzt0g934z5dpmztl89nd000000gn/T//ccd3mB82.s 			page 72


 3490 07b4 67        		.byte	0x67
 3491 07b5 93        		.byte	0x93
 3492 07b6 01        		.uleb128 0x1
 3493 07b7 4201 0000 		.long	.LVL59-.Ltext0
 3494 07bb 4701 0000 		.long	.LVL61-1-.Ltext0
 3495 07bf 0600      		.word	0x6
 3496 07c1 62        		.byte	0x62
 3497 07c2 93        		.byte	0x93
 3498 07c3 01        		.uleb128 0x1
 3499 07c4 63        		.byte	0x63
 3500 07c5 93        		.byte	0x93
 3501 07c6 01        		.uleb128 0x1
 3502 07c7 4701 0000 		.long	.LVL61-1-.Ltext0
 3503 07cb 4801 0000 		.long	.LFE17-.Ltext0
 3504 07cf 0400      		.word	0x4
 3505 07d1 F3        		.byte	0xf3
 3506 07d2 01        		.uleb128 0x1
 3507 07d3 66        		.byte	0x66
 3508 07d4 9F        		.byte	0x9f
 3509 07d5 0000 0000 		.long	0
 3510 07d9 0000 0000 		.long	0
 3511               	.LLST42:
 3512 07dd 4801 0000 		.long	.LFB18-.Ltext0
 3513 07e1 4A01 0000 		.long	.LCFI8-.Ltext0
 3514 07e5 0300      		.word	0x3
 3515 07e7 92        		.byte	0x92
 3516 07e8 20        		.uleb128 0x20
 3517 07e9 02        		.sleb128 2
 3518 07ea 4A01 0000 		.long	.LCFI8-.Ltext0
 3519 07ee 4C01 0000 		.long	.LCFI9-.Ltext0
 3520 07f2 0300      		.word	0x3
 3521 07f4 92        		.byte	0x92
 3522 07f5 20        		.uleb128 0x20
 3523 07f6 03        		.sleb128 3
 3524 07f7 4C01 0000 		.long	.LCFI9-.Ltext0
 3525 07fb FE01 0000 		.long	.LFE18-.Ltext0
 3526 07ff 0300      		.word	0x3
 3527 0801 92        		.byte	0x92
 3528 0802 20        		.uleb128 0x20
 3529 0803 04        		.sleb128 4
 3530 0804 0000 0000 		.long	0
 3531 0808 0000 0000 		.long	0
 3532               	.LLST43:
 3533 080c 4801 0000 		.long	.LVL62-.Ltext0
 3534 0810 5801 0000 		.long	.LVL64-.Ltext0
 3535 0814 0600      		.word	0x6
 3536 0816 68        		.byte	0x68
 3537 0817 93        		.byte	0x93
 3538 0818 01        		.uleb128 0x1
 3539 0819 69        		.byte	0x69
 3540 081a 93        		.byte	0x93
 3541 081b 01        		.uleb128 0x1
 3542 081c 5801 0000 		.long	.LVL64-.Ltext0
 3543 0820 7F01 0000 		.long	.LVL67-1-.Ltext0
 3544 0824 0600      		.word	0x6
 3545 0826 6E        		.byte	0x6e
 3546 0827 93        		.byte	0x93
GAS LISTING /var/folders/86/8ymzt0g934z5dpmztl89nd000000gn/T//ccd3mB82.s 			page 73


 3547 0828 01        		.uleb128 0x1
 3548 0829 6F        		.byte	0x6f
 3549 082a 93        		.byte	0x93
 3550 082b 01        		.uleb128 0x1
 3551 082c 7F01 0000 		.long	.LVL67-1-.Ltext0
 3552 0830 FE01 0000 		.long	.LFE18-.Ltext0
 3553 0834 0400      		.word	0x4
 3554 0836 F3        		.byte	0xf3
 3555 0837 01        		.uleb128 0x1
 3556 0838 68        		.byte	0x68
 3557 0839 9F        		.byte	0x9f
 3558 083a 0000 0000 		.long	0
 3559 083e 0000 0000 		.long	0
 3560               	.LLST44:
 3561 0842 4801 0000 		.long	.LVL62-.Ltext0
 3562 0846 7F01 0000 		.long	.LVL67-1-.Ltext0
 3563 084a 0600      		.word	0x6
 3564 084c 66        		.byte	0x66
 3565 084d 93        		.byte	0x93
 3566 084e 01        		.uleb128 0x1
 3567 084f 67        		.byte	0x67
 3568 0850 93        		.byte	0x93
 3569 0851 01        		.uleb128 0x1
 3570 0852 7F01 0000 		.long	.LVL67-1-.Ltext0
 3571 0856 FA01 0000 		.long	.LVL76-.Ltext0
 3572 085a 0600      		.word	0x6
 3573 085c 6C        		.byte	0x6c
 3574 085d 93        		.byte	0x93
 3575 085e 01        		.uleb128 0x1
 3576 085f 6D        		.byte	0x6d
 3577 0860 93        		.byte	0x93
 3578 0861 01        		.uleb128 0x1
 3579 0862 FA01 0000 		.long	.LVL76-.Ltext0
 3580 0866 FD01 0000 		.long	.LVL77-1-.Ltext0
 3581 086a 0600      		.word	0x6
 3582 086c 62        		.byte	0x62
 3583 086d 93        		.byte	0x93
 3584 086e 01        		.uleb128 0x1
 3585 086f 63        		.byte	0x63
 3586 0870 93        		.byte	0x93
 3587 0871 01        		.uleb128 0x1
 3588 0872 FD01 0000 		.long	.LVL77-1-.Ltext0
 3589 0876 FE01 0000 		.long	.LFE18-.Ltext0
 3590 087a 0400      		.word	0x4
 3591 087c F3        		.byte	0xf3
 3592 087d 01        		.uleb128 0x1
 3593 087e 66        		.byte	0x66
 3594 087f 9F        		.byte	0x9f
 3595 0880 0000 0000 		.long	0
 3596 0884 0000 0000 		.long	0
 3597               	.LLST45:
 3598 0888 5C01 0000 		.long	.LVL65-.Ltext0
 3599 088c 7F01 0000 		.long	.LVL67-1-.Ltext0
 3600 0890 0600      		.word	0x6
 3601 0892 6E        		.byte	0x6e
 3602 0893 93        		.byte	0x93
 3603 0894 01        		.uleb128 0x1
GAS LISTING /var/folders/86/8ymzt0g934z5dpmztl89nd000000gn/T//ccd3mB82.s 			page 74


 3604 0895 6F        		.byte	0x6f
 3605 0896 93        		.byte	0x93
 3606 0897 01        		.uleb128 0x1
 3607 0898 7F01 0000 		.long	.LVL67-1-.Ltext0
 3608 089c FE01 0000 		.long	.LFE18-.Ltext0
 3609 08a0 0400      		.word	0x4
 3610 08a2 F3        		.byte	0xf3
 3611 08a3 01        		.uleb128 0x1
 3612 08a4 68        		.byte	0x68
 3613 08a5 9F        		.byte	0x9f
 3614 08a6 0000 0000 		.long	0
 3615 08aa 0000 0000 		.long	0
 3616               	.LLST46:
 3617 08ae 6801 0000 		.long	.LVL66-.Ltext0
 3618 08b2 7F01 0000 		.long	.LVL67-1-.Ltext0
 3619 08b6 0600      		.word	0x6
 3620 08b8 66        		.byte	0x66
 3621 08b9 93        		.byte	0x93
 3622 08ba 01        		.uleb128 0x1
 3623 08bb 67        		.byte	0x67
 3624 08bc 93        		.byte	0x93
 3625 08bd 01        		.uleb128 0x1
 3626 08be 7F01 0000 		.long	.LVL67-1-.Ltext0
 3627 08c2 FA01 0000 		.long	.LVL76-.Ltext0
 3628 08c6 0600      		.word	0x6
 3629 08c8 6C        		.byte	0x6c
 3630 08c9 93        		.byte	0x93
 3631 08ca 01        		.uleb128 0x1
 3632 08cb 6D        		.byte	0x6d
 3633 08cc 93        		.byte	0x93
 3634 08cd 01        		.uleb128 0x1
 3635 08ce FA01 0000 		.long	.LVL76-.Ltext0
 3636 08d2 FD01 0000 		.long	.LVL77-1-.Ltext0
 3637 08d6 0600      		.word	0x6
 3638 08d8 62        		.byte	0x62
 3639 08d9 93        		.byte	0x93
 3640 08da 01        		.uleb128 0x1
 3641 08db 63        		.byte	0x63
 3642 08dc 93        		.byte	0x93
 3643 08dd 01        		.uleb128 0x1
 3644 08de FD01 0000 		.long	.LVL77-1-.Ltext0
 3645 08e2 FE01 0000 		.long	.LFE18-.Ltext0
 3646 08e6 0400      		.word	0x4
 3647 08e8 F3        		.byte	0xf3
 3648 08e9 01        		.uleb128 0x1
 3649 08ea 66        		.byte	0x66
 3650 08eb 9F        		.byte	0x9f
 3651 08ec 0000 0000 		.long	0
 3652 08f0 0000 0000 		.long	0
 3653               	.LLST47:
 3654 08f4 AC01 0000 		.long	.LVL70-.Ltext0
 3655 08f8 FA01 0000 		.long	.LVL76-.Ltext0
 3656 08fc 0600      		.word	0x6
 3657 08fe 6C        		.byte	0x6c
 3658 08ff 93        		.byte	0x93
 3659 0900 01        		.uleb128 0x1
 3660 0901 6D        		.byte	0x6d
GAS LISTING /var/folders/86/8ymzt0g934z5dpmztl89nd000000gn/T//ccd3mB82.s 			page 75


 3661 0902 93        		.byte	0x93
 3662 0903 01        		.uleb128 0x1
 3663 0904 FA01 0000 		.long	.LVL76-.Ltext0
 3664 0908 FD01 0000 		.long	.LVL77-1-.Ltext0
 3665 090c 0600      		.word	0x6
 3666 090e 62        		.byte	0x62
 3667 090f 93        		.byte	0x93
 3668 0910 01        		.uleb128 0x1
 3669 0911 63        		.byte	0x63
 3670 0912 93        		.byte	0x93
 3671 0913 01        		.uleb128 0x1
 3672 0914 FD01 0000 		.long	.LVL77-1-.Ltext0
 3673 0918 FE01 0000 		.long	.LFE18-.Ltext0
 3674 091c 0400      		.word	0x4
 3675 091e F3        		.byte	0xf3
 3676 091f 01        		.uleb128 0x1
 3677 0920 66        		.byte	0x66
 3678 0921 9F        		.byte	0x9f
 3679 0922 0000 0000 		.long	0
 3680 0926 0000 0000 		.long	0
 3681               		.section	.debug_aranges,"",@progbits
 3682 0000 1C00 0000 		.long	0x1c
 3683 0004 0200      		.word	0x2
 3684 0006 0000 0000 		.long	.Ldebug_info0
 3685 000a 04        		.byte	0x4
 3686 000b 00        		.byte	0
 3687 000c 0000      		.word	0
 3688 000e 0000      		.word	0
 3689 0010 0000 0000 		.long	.Ltext0
 3690 0014 FE01 0000 		.long	.Letext0-.Ltext0
 3691 0018 0000 0000 		.long	0
 3692 001c 0000 0000 		.long	0
 3693               		.section	.debug_line,"",@progbits
 3694               	.Ldebug_line0:
 3695 0000 6C01 0000 		.section	.debug_str,"MS",@progbits,1
 3695      0200 B000 
 3695      0000 0201 
 3695      FB0E 0A00 
 3695      0101 0101 
 3696               	.LASF26:
 3697 0000 6C63 6D64 		.string	"lcmd_disp_home"
 3697      5F64 6973 
 3697      705F 686F 
 3697      6D65 00
 3698               	.LASF36:
 3699 000f 5F5A 3133 		.string	"_Z13lcmd_func_sethhPVh"
 3699      6C63 6D64 
 3699      5F66 756E 
 3699      635F 7365 
 3699      7468 6850 
 3700               	.LASF37:
 3701 0026 6C63 6D64 		.string	"lcmd_cgr_set_addr"
 3701      5F63 6772 
 3701      5F73 6574 
 3701      5F61 6464 
 3701      7200 
 3702               	.LASF20:
GAS LISTING /var/folders/86/8ymzt0g934z5dpmztl89nd000000gn/T//ccd3mB82.s 			page 76


 3703 0038 5F5F 6275 		.string	"__builtin_avr_delay_cycles"
 3703      696C 7469 
 3703      6E5F 6176 
 3703      725F 6465 
 3703      6C61 795F 
 3704               	.LASF24:
 3705 0053 6869 6768 		.string	"high_bits"
 3705      5F62 6974 
 3705      7300 
 3706               	.LASF15:
 3707 005d 5F5F 746D 		.string	"__tmp"
 3707      7000 
 3708               	.LASF27:
 3709 0063 5F5A 3135 		.string	"_Z15lcmd_disp_clearPVh"
 3709      6C63 6D64 
 3709      5F64 6973 
 3709      705F 636C 
 3709      6561 7250 
 3710               	.LASF22:
 3711 007a 775F 3130 		.string	"w_10us"
 3711      7573 00
 3712               	.LASF25:
 3713 0081 6C63 6D64 		.string	"lcmd_disp_clear"
 3713      5F64 6973 
 3713      705F 636C 
 3713      6561 7200 
 3714               	.LASF11:
 3715 0091 5F5F 636F 		.string	"__count"
 3715      756E 7400 
 3716               	.LASF23:
 3717 0099 6C6F 775F 		.string	"low_bits"
 3717      6269 7473 
 3717      00
 3718               	.LASF9:
 3719 00a2 5F64 656C 		.string	"_delay_loop_1"
 3719      6179 5F6C 
 3719      6F6F 705F 
 3719      3100 
 3720               	.LASF30:
 3721 00b0 5F5A 3133 		.string	"_Z13lcmd_entry_smhhPVh"
 3721      6C63 6D64 
 3721      5F65 6E74 
 3721      7279 5F73 
 3721      6D68 6850 
 3722               	.LASF4:
 3723 00c7 7569 6E74 		.string	"uint8_t"
 3723      385F 7400 
 3724               	.LASF45:
 3725 00cf 6C63 6D64 		.string	"lcmd_init_4bit"
 3725      5F69 6E69 
 3725      745F 3462 
 3725      6974 00
 3726               	.LASF21:
 3727 00de 5F6C 636D 		.string	"_lcm_function"
 3727      5F66 756E 
 3727      6374 696F 
 3727      6E00 
GAS LISTING /var/folders/86/8ymzt0g934z5dpmztl89nd000000gn/T//ccd3mB82.s 			page 77


 3728               	.LASF33:
 3729 00ec 6C63 6D64 		.string	"lcmd_disp_cur_shift"
 3729      5F64 6973 
 3729      705F 6375 
 3729      725F 7368 
 3729      6966 7400 
 3730               	.LASF32:
 3731 0100 5F5A 3136 		.string	"_Z16lcmd_disp_on_offhhhPVh"
 3731      6C63 6D64 
 3731      5F64 6973 
 3731      705F 6F6E 
 3731      5F6F 6666 
 3732               	.LASF7:
 3733 011b 6C6F 6E67 		.string	"long long int"
 3733      206C 6F6E 
 3733      6720 696E 
 3733      7400 
 3734               	.LASF3:
 3735 0129 6C6F 6E67 		.string	"long int"
 3735      2069 6E74 
 3735      00
 3736               	.LASF43:
 3737 0132 5F5A 3130 		.string	"_Z10lcmd_writehPVh"
 3737      6C63 6D64 
 3737      5F77 7269 
 3737      7465 6850 
 3737      5668 00
 3738               	.LASF39:
 3739 0145 6164 6472 		.string	"addr"
 3739      00
 3740               	.LASF18:
 3741 014a 5F64 656C 		.string	"_delay_ms"
 3741      6179 5F6D 
 3741      7300 
 3742               	.LASF40:
 3743 0154 6C63 6D64 		.string	"lcmd_ddr_set_addr"
 3743      5F64 6472 
 3743      5F73 6574 
 3743      5F61 6464 
 3743      7200 
 3744               	.LASF1:
 3745 0166 756E 7369 		.string	"unsigned char"
 3745      676E 6564 
 3745      2063 6861 
 3745      7200 
 3746               	.LASF0:
 3747 0174 7369 676E 		.string	"signed char"
 3747      6564 2063 
 3747      6861 7200 
 3748               	.LASF13:
 3749 0180 5F64 656C 		.string	"_delay_us"
 3749      6179 5F75 
 3749      7300 
 3750               	.LASF8:
 3751 018a 6C6F 6E67 		.string	"long long unsigned int"
 3751      206C 6F6E 
 3751      6720 756E 
GAS LISTING /var/folders/86/8ymzt0g934z5dpmztl89nd000000gn/T//ccd3mB82.s 			page 78


 3751      7369 676E 
 3751      6564 2069 
 3752               	.LASF5:
 3753 01a1 7569 6E74 		.string	"uint32_t"
 3753      3332 5F74 
 3753      00
 3754               	.LASF2:
 3755 01aa 756E 7369 		.string	"unsigned int"
 3755      676E 6564 
 3755      2069 6E74 
 3755      00
 3756               	.LASF34:
 3757 01b7 5F5A 3139 		.string	"_Z19lcmd_disp_cur_shifthhPVh"
 3757      6C63 6D64 
 3757      5F64 6973 
 3757      705F 6375 
 3757      725F 7368 
 3758               	.LASF31:
 3759 01d4 6C63 6D64 		.string	"lcmd_disp_on_off"
 3759      5F64 6973 
 3759      705F 6F6E 
 3759      5F6F 6666 
 3759      00
 3760               	.LASF35:
 3761 01e5 6C63 6D64 		.string	"lcmd_func_set"
 3761      5F66 756E 
 3761      635F 7365 
 3761      7400 
 3762               	.LASF10:
 3763 01f3 5F6C 636D 		.string	"_lcm_cp"
 3763      5F63 7000 
 3764               	.LASF28:
 3765 01fb 5F5A 3134 		.string	"_Z14lcmd_disp_homePVh"
 3765      6C63 6D64 
 3765      5F64 6973 
 3765      705F 686F 
 3765      6D65 5056 
 3766               	.LASF44:
 3767 0211 6461 7461 		.string	"data"
 3767      00
 3768               	.LASF42:
 3769 0216 6C63 6D64 		.string	"lcmd_write"
 3769      5F77 7269 
 3769      7465 00
 3770               	.LASF46:
 3771 0221 5F5A 3134 		.string	"_Z14lcmd_init_4bitPVhS0_"
 3771      6C63 6D64 
 3771      5F69 6E69 
 3771      745F 3462 
 3771      6974 5056 
 3772               	.LASF12:
 3773 023a 706F 7274 		.string	"port"
 3773      00
 3774               	.LASF41:
 3775 023f 5F5A 3137 		.string	"_Z17lcmd_ddr_set_addrhPVh"
 3775      6C63 6D64 
 3775      5F64 6472 
GAS LISTING /var/folders/86/8ymzt0g934z5dpmztl89nd000000gn/T//ccd3mB82.s 			page 79


 3775      5F73 6574 
 3775      5F61 6464 
 3776               	.LASF6:
 3777 0259 6C6F 6E67 		.string	"long unsigned int"
 3777      2075 6E73 
 3777      6967 6E65 
 3777      6420 696E 
 3777      7400 
 3778               	.LASF17:
 3779 026b 646F 7562 		.string	"double"
 3779      6C65 00
 3780               	.LASF49:
 3781 0272 2F55 7365 		.string	"/Users/Esteban/dev/robot-poly/lib_dir"
 3781      7273 2F45 
 3781      7374 6562 
 3781      616E 2F64 
 3781      6576 2F72 
 3782               	.LASF19:
 3783 0298 5F5F 6D73 		.string	"__ms"
 3783      00
 3784               	.LASF16:
 3785 029d 5F5F 7469 		.string	"__ticks_dc"
 3785      636B 735F 
 3785      6463 00
 3786               	.LASF48:
 3787 02a8 6C63 6D5F 		.string	"lcm_so1602dtr_m.cpp"
 3787      736F 3136 
 3787      3032 6474 
 3787      725F 6D2E 
 3787      6370 7000 
 3788               	.LASF50:
 3789 02bc 5F6C 636D 		.string	"_lcm_fast_en"
 3789      5F66 6173 
 3789      745F 656E 
 3789      00
 3790               	.LASF29:
 3791 02c9 6C63 6D64 		.string	"lcmd_entry_sm"
 3791      5F65 6E74 
 3791      7279 5F73 
 3791      6D00 
 3792               	.LASF38:
 3793 02d7 5F5A 3137 		.string	"_Z17lcmd_cgr_set_addrhPVh"
 3793      6C63 6D64 
 3793      5F63 6772 
 3793      5F73 6574 
 3793      5F61 6464 
 3794               	.LASF47:
 3795 02f1 474E 5520 		.string	"GNU C++ 4.8.1 -mmcu=atmega324pa -g -Os -std=c++98 -fpack-struct -fshort-enums -funsigned-
 3795      432B 2B20 
 3795      342E 382E 
 3795      3120 2D6D 
 3795      6D63 753D 
 3796               	.LASF14:
 3797 0394 5F5F 7573 		.string	"__us"
 3797      00
 3798               		.ident	"GCC: (GNU) 4.8.1"
GAS LISTING /var/folders/86/8ymzt0g934z5dpmztl89nd000000gn/T//ccd3mB82.s 			page 80


DEFINED SYMBOLS
                            *ABS*:00000000 lcm_so1602dtr_m.cpp
/var/folders/86/8ymzt0g934z5dpmztl89nd000000gn/T//ccd3mB82.s:2      *ABS*:0000003e __SP_H__
/var/folders/86/8ymzt0g934z5dpmztl89nd000000gn/T//ccd3mB82.s:3      *ABS*:0000003d __SP_L__
/var/folders/86/8ymzt0g934z5dpmztl89nd000000gn/T//ccd3mB82.s:4      *ABS*:0000003f __SREG__
/var/folders/86/8ymzt0g934z5dpmztl89nd000000gn/T//ccd3mB82.s:5      *ABS*:00000000 __tmp_reg__
/var/folders/86/8ymzt0g934z5dpmztl89nd000000gn/T//ccd3mB82.s:6      *ABS*:00000001 __zero_reg__
/var/folders/86/8ymzt0g934z5dpmztl89nd000000gn/T//ccd3mB82.s:11     .text:00000000 _ZL12_lcm_fast_enPVh
/var/folders/86/8ymzt0g934z5dpmztl89nd000000gn/T//ccd3mB82.s:51     .text:00000016 _ZL13_lcm_functionhhhhPVh.constprop.0
/var/folders/86/8ymzt0g934z5dpmztl89nd000000gn/T//ccd3mB82.s:200    .text:000000a0 _Z15lcmd_disp_clearPVh
/var/folders/86/8ymzt0g934z5dpmztl89nd000000gn/T//ccd3mB82.s:222    .text:000000ac _Z14lcmd_disp_homePVh
/var/folders/86/8ymzt0g934z5dpmztl89nd000000gn/T//ccd3mB82.s:244    .text:000000b8 _Z13lcmd_entry_smhhPVh
/var/folders/86/8ymzt0g934z5dpmztl89nd000000gn/T//ccd3mB82.s:275    .text:000000ca _Z16lcmd_disp_on_offhhhPVh
/var/folders/86/8ymzt0g934z5dpmztl89nd000000gn/T//ccd3mB82.s:308    .text:000000e2 _Z19lcmd_disp_cur_shifthhPVh
/var/folders/86/8ymzt0g934z5dpmztl89nd000000gn/T//ccd3mB82.s:345    .text:00000100 _Z13lcmd_func_sethhPVh
/var/folders/86/8ymzt0g934z5dpmztl89nd000000gn/T//ccd3mB82.s:382    .text:0000011e _Z17lcmd_cgr_set_addrhPVh
/var/folders/86/8ymzt0g934z5dpmztl89nd000000gn/T//ccd3mB82.s:412    .text:0000012e _Z17lcmd_ddr_set_addrhPVh
/var/folders/86/8ymzt0g934z5dpmztl89nd000000gn/T//ccd3mB82.s:441    .text:0000013c _Z10lcmd_writehPVh
/var/folders/86/8ymzt0g934z5dpmztl89nd000000gn/T//ccd3mB82.s:464    .text:00000148 _Z14lcmd_init_4bitPVhS0_

NO UNDEFINED SYMBOLS
