GAS LISTING /var/folders/86/8ymzt0g934z5dpmztl89nd000000gn/T//ccnQFVyl.s 			page 1


   1               		.file	"moteur.cpp"
   2               	__SP_H__ = 0x3e
   3               	__SP_L__ = 0x3d
   4               	__SREG__ = 0x3f
   5               	__tmp_reg__ = 0
   6               	__zero_reg__ = 1
   7               		.text
   8               	.Ltext0:
   9               		.cfi_sections	.debug_frame
  10               	.global	_ZN6MoteurC2Ehh
  11               		.type	_ZN6MoteurC2Ehh, @function
  12               	_ZN6MoteurC2Ehh:
  13               	.LFB7:
  14               		.file 1 "moteur.cpp"
   1:moteur.cpp    **** #include "moteur.h"
   2:moteur.cpp    **** 
   3:moteur.cpp    **** Moteur::Moteur(uint8_t vitesse, uint8_t vitesseRotation) : VITESSE(vitesse), VITESSE_ROTATION(vites
  15               		.loc 1 3 0
  16               		.cfi_startproc
  17               	.LVL0:
  18               	/* prologue: function */
  19               	/* frame size = 0 */
  20               	/* stack size = 0 */
  21               	.L__stack_usage = 0
  22               	.LBB2:
  23               		.loc 1 3 0
  24 0000 FC01      		movw r30,r24
  25 0002 6083      		st Z,r22
  26 0004 4183      		std Z+1,r20
  27 0006 0895      		ret
  28               	.LBE2:
  29               		.cfi_endproc
  30               	.LFE7:
  31               		.size	_ZN6MoteurC2Ehh, .-_ZN6MoteurC2Ehh
  32               	.global	_ZN6MoteurC1Ehh
  33               		.set	_ZN6MoteurC1Ehh,_ZN6MoteurC2Ehh
  34               	.global	_ZN6Moteur16ajustementTimer1Ehhh
  35               		.type	_ZN6Moteur16ajustementTimer1Ehhh, @function
  36               	_ZN6Moteur16ajustementTimer1Ehhh:
  37               	.LFB13:
   4:moteur.cpp    **** 
   5:moteur.cpp    **** }
   6:moteur.cpp    **** 
   7:moteur.cpp    **** void Moteur::avancer(uint8_t direction) {
   8:moteur.cpp    **** 	//Calculer vitesse de chaque roue
   9:moteur.cpp    **** 	uint8_t vitesseA = VITESSE;
  10:moteur.cpp    **** 	uint8_t vitesseB = VITESSE;
  11:moteur.cpp    **** 	if (direction <= 90) {
  12:moteur.cpp    **** 		vitesseB = round(VITESSE * direction / 90);
  13:moteur.cpp    **** 	}
  14:moteur.cpp    **** 	else {
  15:moteur.cpp    **** 		vitesseA = round(VITESSE * (180 - direction) / 90);
  16:moteur.cpp    **** 	}
  17:moteur.cpp    **** 
  18:moteur.cpp    **** 	//Ajuster PWM
  19:moteur.cpp    **** 	ajustementTimer1(vitesseA, vitesseB, 0x00);
  20:moteur.cpp    **** }
GAS LISTING /var/folders/86/8ymzt0g934z5dpmztl89nd000000gn/T//ccnQFVyl.s 			page 2


  21:moteur.cpp    **** 
  22:moteur.cpp    **** void Moteur::reculer(uint8_t direction) {
  23:moteur.cpp    **** 	//Calculer vitesse de chaque roue
  24:moteur.cpp    **** 	uint8_t vitesseA = VITESSE;
  25:moteur.cpp    **** 	uint8_t vitesseB = VITESSE;
  26:moteur.cpp    **** 	if (direction <= 90) {
  27:moteur.cpp    **** 		vitesseB = round(VITESSE * direction / 90);
  28:moteur.cpp    **** 	}
  29:moteur.cpp    **** 	else {
  30:moteur.cpp    **** 		vitesseA = round(VITESSE * (180 - direction) / 90);
  31:moteur.cpp    **** 	}
  32:moteur.cpp    **** 
  33:moteur.cpp    **** 	//Ajuster PWM
  34:moteur.cpp    **** 	ajustementTimer1(vitesseA, vitesseB, 0x03);
  35:moteur.cpp    **** }
  36:moteur.cpp    **** 
  37:moteur.cpp    **** void Moteur::tourner(uint8_t degree) {
  38:moteur.cpp    **** 	//Tourner
  39:moteur.cpp    **** 	if (degree > 0){
  40:moteur.cpp    **** 		ajustementTimer1(VITESSE_ROTATION,VITESSE_ROTATION,0x02); //Droite
  41:moteur.cpp    **** 	}
  42:moteur.cpp    **** 	else {
  43:moteur.cpp    **** 		ajustementTimer1(VITESSE_ROTATION,VITESSE_ROTATION,0x01); //Gauche
  44:moteur.cpp    **** 	}
  45:moteur.cpp    ****   	Utility::delay(degree * 10 + 100);
  46:moteur.cpp    **** 
  47:moteur.cpp    **** 	//Terminer tournant
  48:moteur.cpp    **** 	arreter();
  49:moteur.cpp    **** }
  50:moteur.cpp    **** 
  51:moteur.cpp    **** void Moteur::arreter() {
  52:moteur.cpp    **** 	ajustementTimer1(0,0,0x00);
  53:moteur.cpp    **** }
  54:moteur.cpp    **** 
  55:moteur.cpp    **** void Moteur::ajustementTimer1( uint8_t dureeA, uint8_t dureeB, uint8_t direction)
  56:moteur.cpp    **** {
  38               		.loc 1 56 0
  39               		.cfi_startproc
  40               	.LVL1:
  41               	/* prologue: function */
  42               	/* frame size = 0 */
  43               	/* stack size = 0 */
  44               	.L__stack_usage = 0
  57:moteur.cpp    ****   TCCR1A |= (1 << WGM10) | (1 << COM1A1)|(1 << COM1B1) ;
  45               		.loc 1 57 0
  46 0008 E0E8      		ldi r30,lo8(-128)
  47 000a F0E0      		ldi r31,0
  48 000c 9081      		ld r25,Z
  49 000e 916A      		ori r25,lo8(-95)
  50 0010 9083      		st Z,r25
  58:moteur.cpp    ****   TCCR1B |= (1<< CS11) ;
  51               		.loc 1 58 0
  52 0012 E1E8      		ldi r30,lo8(-127)
  53 0014 F0E0      		ldi r31,0
  54 0016 9081      		ld r25,Z
  55 0018 9260      		ori r25,lo8(2)
  56 001a 9083      		st Z,r25
GAS LISTING /var/folders/86/8ymzt0g934z5dpmztl89nd000000gn/T//ccnQFVyl.s 			page 3


  59:moteur.cpp    ****   OCR1A = dureeA ; OCR1B = dureeB;
  57               		.loc 1 59 0
  58 001c 90E0      		ldi r25,0
  59 001e 9093 8900 		sts 136+1,r25
  60 0022 8093 8800 		sts 136,r24
  61 0026 70E0      		ldi r23,0
  62 0028 7093 8B00 		sts 138+1,r23
  63 002c 6093 8A00 		sts 138,r22
  60:moteur.cpp    **** 
  61:moteur.cpp    ****   PORTD &= 0x3F; //Reinitialiser la direction
  64               		.loc 1 61 0
  65 0030 8BB1      		in r24,0xb
  66               	.LVL2:
  67 0032 8F73      		andi r24,lo8(63)
  68 0034 8BB9      		out 0xb,r24
  62:moteur.cpp    ****   PORTD |= direction << 6; //Nouvelle direction
  69               		.loc 1 62 0
  70 0036 8BB1      		in r24,0xb
  71 0038 90E4      		ldi r25,lo8(64)
  72 003a 499F      		mul r20,r25
  73 003c A001      		movw r20,r0
  74 003e 1124      		clr __zero_reg__
  75               	.LVL3:
  76 0040 842B      		or r24,r20
  77 0042 8BB9      		out 0xb,r24
  78 0044 0895      		ret
  79               		.cfi_endproc
  80               	.LFE13:
  81               		.size	_ZN6Moteur16ajustementTimer1Ehhh, .-_ZN6Moteur16ajustementTimer1Ehhh
  82               	.global	__floatsisf
  83               	.global	__fixunssfsi
  84               	.global	_ZN6Moteur7avancerEh
  85               		.type	_ZN6Moteur7avancerEh, @function
  86               	_ZN6Moteur7avancerEh:
  87               	.LFB9:
   7:moteur.cpp    **** void Moteur::avancer(uint8_t direction) {
  88               		.loc 1 7 0
  89               		.cfi_startproc
  90               	.LVL4:
  91 0046 CF93      		push r28
  92               	.LCFI0:
  93               		.cfi_def_cfa_offset 3
  94               		.cfi_offset 28, -2
  95               	/* prologue: function */
  96               	/* frame size = 0 */
  97               	/* stack size = 1 */
  98               	.L__stack_usage = 1
  99               	.LBB3:
   9:moteur.cpp    **** 	uint8_t vitesseA = VITESSE;
 100               		.loc 1 9 0
 101 0048 FC01      		movw r30,r24
 102 004a C081      		ld r28,Z
 103               	.LVL5:
  11:moteur.cpp    **** 	if (direction <= 90) {
 104               		.loc 1 11 0
 105 004c 6B35      		cpi r22,lo8(91)
 106 004e 00F4      		brsh .L4
GAS LISTING /var/folders/86/8ymzt0g934z5dpmztl89nd000000gn/T//ccnQFVyl.s 			page 4


  12:moteur.cpp    **** 		vitesseB = round(VITESSE * direction / 90);
 107               		.loc 1 12 0
 108 0050 C69F      		mul r28,r22
 109 0052 C001      		movw r24,r0
 110 0054 1124      		clr __zero_reg__
 111               	.LVL6:
 112 0056 6AE5      		ldi r22,lo8(90)
 113 0058 70E0      		ldi r23,0
 114               	.LVL7:
 115 005a 0E94 0000 		call __divmodhi4
 116 005e 8827      		clr r24
 117 0060 77FD      		sbrc r23,7
 118 0062 8095      		com r24
 119 0064 982F      		mov r25,r24
 120 0066 0E94 0000 		call __floatsisf
 121               	.LVL8:
 122 006a 0E94 0000 		call round
 123               	.LVL9:
 124 006e 0E94 0000 		call __fixunssfsi
 125               	.LVL10:
   9:moteur.cpp    **** 	uint8_t vitesseA = VITESSE;
 126               		.loc 1 9 0
 127 0072 8C2F      		mov r24,r28
  12:moteur.cpp    **** 		vitesseB = round(VITESSE * direction / 90);
 128               		.loc 1 12 0
 129 0074 C62F      		mov r28,r22
 130               	.LVL11:
 131 0076 00C0      		rjmp .L5
 132               	.LVL12:
 133               	.L4:
  15:moteur.cpp    **** 		vitesseA = round(VITESSE * (180 - direction) / 90);
 134               		.loc 1 15 0
 135 0078 24EB      		ldi r18,lo8(-76)
 136 007a 30E0      		ldi r19,0
 137 007c 261B      		sub r18,r22
 138 007e 3109      		sbc r19,__zero_reg__
 139 0080 C29F      		mul r28,r18
 140 0082 C001      		movw r24,r0
 141 0084 C39F      		mul r28,r19
 142 0086 900D      		add r25,r0
 143 0088 1124      		clr __zero_reg__
 144               	.LVL13:
 145 008a 6AE5      		ldi r22,lo8(90)
 146 008c 70E0      		ldi r23,0
 147               	.LVL14:
 148 008e 0E94 0000 		call __divmodhi4
 149 0092 8827      		clr r24
 150 0094 77FD      		sbrc r23,7
 151 0096 8095      		com r24
 152 0098 982F      		mov r25,r24
 153 009a 0E94 0000 		call __floatsisf
 154               	.LVL15:
 155 009e 0E94 0000 		call round
 156               	.LVL16:
 157 00a2 0E94 0000 		call __fixunssfsi
 158               	.LVL17:
 159 00a6 862F      		mov r24,r22
GAS LISTING /var/folders/86/8ymzt0g934z5dpmztl89nd000000gn/T//ccnQFVyl.s 			page 5


 160               	.LVL18:
 161               	.L5:
  19:moteur.cpp    **** 	ajustementTimer1(vitesseA, vitesseB, 0x00);
 162               		.loc 1 19 0
 163 00a8 40E0      		ldi r20,0
 164 00aa 6C2F      		mov r22,r28
 165               	/* epilogue start */
 166               	.LBE3:
  20:moteur.cpp    **** }
 167               		.loc 1 20 0
 168 00ac CF91      		pop r28
 169               	.LVL19:
 170               	.LBB4:
  19:moteur.cpp    **** 	ajustementTimer1(vitesseA, vitesseB, 0x00);
 171               		.loc 1 19 0
 172 00ae 0C94 0000 		jmp _ZN6Moteur16ajustementTimer1Ehhh
 173               	.LVL20:
 174               	.LBE4:
 175               		.cfi_endproc
 176               	.LFE9:
 177               		.size	_ZN6Moteur7avancerEh, .-_ZN6Moteur7avancerEh
 178               	.global	_ZN6Moteur7reculerEh
 179               		.type	_ZN6Moteur7reculerEh, @function
 180               	_ZN6Moteur7reculerEh:
 181               	.LFB10:
  22:moteur.cpp    **** void Moteur::reculer(uint8_t direction) {
 182               		.loc 1 22 0
 183               		.cfi_startproc
 184               	.LVL21:
 185 00b2 CF93      		push r28
 186               	.LCFI1:
 187               		.cfi_def_cfa_offset 3
 188               		.cfi_offset 28, -2
 189               	/* prologue: function */
 190               	/* frame size = 0 */
 191               	/* stack size = 1 */
 192               	.L__stack_usage = 1
 193               	.LBB5:
  24:moteur.cpp    **** 	uint8_t vitesseA = VITESSE;
 194               		.loc 1 24 0
 195 00b4 FC01      		movw r30,r24
 196 00b6 C081      		ld r28,Z
 197               	.LVL22:
  26:moteur.cpp    **** 	if (direction <= 90) {
 198               		.loc 1 26 0
 199 00b8 6B35      		cpi r22,lo8(91)
 200 00ba 00F4      		brsh .L8
  27:moteur.cpp    **** 		vitesseB = round(VITESSE * direction / 90);
 201               		.loc 1 27 0
 202 00bc C69F      		mul r28,r22
 203 00be C001      		movw r24,r0
 204 00c0 1124      		clr __zero_reg__
 205               	.LVL23:
 206 00c2 6AE5      		ldi r22,lo8(90)
 207 00c4 70E0      		ldi r23,0
 208               	.LVL24:
 209 00c6 0E94 0000 		call __divmodhi4
GAS LISTING /var/folders/86/8ymzt0g934z5dpmztl89nd000000gn/T//ccnQFVyl.s 			page 6


 210 00ca 8827      		clr r24
 211 00cc 77FD      		sbrc r23,7
 212 00ce 8095      		com r24
 213 00d0 982F      		mov r25,r24
 214 00d2 0E94 0000 		call __floatsisf
 215               	.LVL25:
 216 00d6 0E94 0000 		call round
 217               	.LVL26:
 218 00da 0E94 0000 		call __fixunssfsi
 219               	.LVL27:
  24:moteur.cpp    **** 	uint8_t vitesseA = VITESSE;
 220               		.loc 1 24 0
 221 00de 8C2F      		mov r24,r28
  27:moteur.cpp    **** 		vitesseB = round(VITESSE * direction / 90);
 222               		.loc 1 27 0
 223 00e0 C62F      		mov r28,r22
 224               	.LVL28:
 225 00e2 00C0      		rjmp .L9
 226               	.LVL29:
 227               	.L8:
  30:moteur.cpp    **** 		vitesseA = round(VITESSE * (180 - direction) / 90);
 228               		.loc 1 30 0
 229 00e4 24EB      		ldi r18,lo8(-76)
 230 00e6 30E0      		ldi r19,0
 231 00e8 261B      		sub r18,r22
 232 00ea 3109      		sbc r19,__zero_reg__
 233 00ec C29F      		mul r28,r18
 234 00ee C001      		movw r24,r0
 235 00f0 C39F      		mul r28,r19
 236 00f2 900D      		add r25,r0
 237 00f4 1124      		clr __zero_reg__
 238               	.LVL30:
 239 00f6 6AE5      		ldi r22,lo8(90)
 240 00f8 70E0      		ldi r23,0
 241               	.LVL31:
 242 00fa 0E94 0000 		call __divmodhi4
 243 00fe 8827      		clr r24
 244 0100 77FD      		sbrc r23,7
 245 0102 8095      		com r24
 246 0104 982F      		mov r25,r24
 247 0106 0E94 0000 		call __floatsisf
 248               	.LVL32:
 249 010a 0E94 0000 		call round
 250               	.LVL33:
 251 010e 0E94 0000 		call __fixunssfsi
 252               	.LVL34:
 253 0112 862F      		mov r24,r22
 254               	.LVL35:
 255               	.L9:
  34:moteur.cpp    **** 	ajustementTimer1(vitesseA, vitesseB, 0x03);
 256               		.loc 1 34 0
 257 0114 43E0      		ldi r20,lo8(3)
 258 0116 6C2F      		mov r22,r28
 259               	/* epilogue start */
 260               	.LBE5:
  35:moteur.cpp    **** }
 261               		.loc 1 35 0
GAS LISTING /var/folders/86/8ymzt0g934z5dpmztl89nd000000gn/T//ccnQFVyl.s 			page 7


 262 0118 CF91      		pop r28
 263               	.LVL36:
 264               	.LBB6:
  34:moteur.cpp    **** 	ajustementTimer1(vitesseA, vitesseB, 0x03);
 265               		.loc 1 34 0
 266 011a 0C94 0000 		jmp _ZN6Moteur16ajustementTimer1Ehhh
 267               	.LVL37:
 268               	.LBE6:
 269               		.cfi_endproc
 270               	.LFE10:
 271               		.size	_ZN6Moteur7reculerEh, .-_ZN6Moteur7reculerEh
 272               	.global	_ZN6Moteur7arreterEv
 273               		.type	_ZN6Moteur7arreterEv, @function
 274               	_ZN6Moteur7arreterEv:
 275               	.LFB12:
  51:moteur.cpp    **** void Moteur::arreter() {
 276               		.loc 1 51 0
 277               		.cfi_startproc
 278               	.LVL38:
 279               	/* prologue: function */
 280               	/* frame size = 0 */
 281               	/* stack size = 0 */
 282               	.L__stack_usage = 0
  52:moteur.cpp    **** 	ajustementTimer1(0,0,0x00);
 283               		.loc 1 52 0
 284 011e 40E0      		ldi r20,0
 285 0120 60E0      		ldi r22,0
 286 0122 80E0      		ldi r24,0
 287               	.LVL39:
 288 0124 0C94 0000 		jmp _ZN6Moteur16ajustementTimer1Ehhh
 289               	.LVL40:
 290               		.cfi_endproc
 291               	.LFE12:
 292               		.size	_ZN6Moteur7arreterEv, .-_ZN6Moteur7arreterEv
 293               	.global	_ZN6Moteur7tournerEh
 294               		.type	_ZN6Moteur7tournerEh, @function
 295               	_ZN6Moteur7tournerEh:
 296               	.LFB11:
  37:moteur.cpp    **** void Moteur::tourner(uint8_t degree) {
 297               		.loc 1 37 0
 298               		.cfi_startproc
 299               	.LVL41:
 300 0128 1F93      		push r17
 301               	.LCFI2:
 302               		.cfi_def_cfa_offset 3
 303               		.cfi_offset 17, -2
 304 012a CF93      		push r28
 305               	.LCFI3:
 306               		.cfi_def_cfa_offset 4
 307               		.cfi_offset 28, -3
 308 012c DF93      		push r29
 309               	.LCFI4:
 310               		.cfi_def_cfa_offset 5
 311               		.cfi_offset 29, -4
 312               	/* prologue: function */
 313               	/* frame size = 0 */
 314               	/* stack size = 3 */
GAS LISTING /var/folders/86/8ymzt0g934z5dpmztl89nd000000gn/T//ccnQFVyl.s 			page 8


 315               	.L__stack_usage = 3
 316 012e EC01      		movw r28,r24
 317 0130 162F      		mov r17,r22
 318 0132 8981      		ldd r24,Y+1
 319               	.LVL42:
  39:moteur.cpp    **** 	if (degree > 0){
 320               		.loc 1 39 0
 321 0134 6623      		tst r22
 322 0136 01F0      		breq .L12
  40:moteur.cpp    **** 		ajustementTimer1(VITESSE_ROTATION,VITESSE_ROTATION,0x02); //Droite
 323               		.loc 1 40 0
 324 0138 42E0      		ldi r20,lo8(2)
 325 013a 00C0      		rjmp .L14
 326               	.L12:
  43:moteur.cpp    **** 		ajustementTimer1(VITESSE_ROTATION,VITESSE_ROTATION,0x01); //Gauche
 327               		.loc 1 43 0
 328 013c 41E0      		ldi r20,lo8(1)
 329               	.L14:
 330 013e 682F      		mov r22,r24
 331               	.LVL43:
 332 0140 0E94 0000 		call _ZN6Moteur16ajustementTimer1Ehhh
 333               	.LVL44:
  45:moteur.cpp    ****   	Utility::delay(degree * 10 + 100);
 334               		.loc 1 45 0
 335 0144 2AE0      		ldi r18,lo8(10)
 336 0146 129F      		mul r17,r18
 337 0148 C001      		movw r24,r0
 338 014a 1124      		clr __zero_reg__
 339 014c 8C59      		subi r24,-100
 340 014e 9F4F      		sbci r25,-1
 341 0150 0E94 0000 		call _ZN7Utility5delayEj
 342               	.LVL45:
  48:moteur.cpp    **** 	arreter();
 343               		.loc 1 48 0
 344 0154 CE01      		movw r24,r28
 345               	/* epilogue start */
  49:moteur.cpp    **** }
 346               		.loc 1 49 0
 347 0156 DF91      		pop r29
 348 0158 CF91      		pop r28
 349               	.LVL46:
 350 015a 1F91      		pop r17
 351               	.LVL47:
  48:moteur.cpp    **** 	arreter();
 352               		.loc 1 48 0
 353 015c 0C94 0000 		jmp _ZN6Moteur7arreterEv
 354               	.LVL48:
 355               		.cfi_endproc
 356               	.LFE11:
 357               		.size	_ZN6Moteur7tournerEh, .-_ZN6Moteur7tournerEh
 358               	.Letext0:
 359               		.file 2 "/usr/local/CrossPack-AVR-20131216/avr/include/stdint.h"
 360               		.file 3 "utility.h"
 361               		.file 4 "moteur.h"
 362               		.file 5 "/usr/local/CrossPack-AVR-20131216/avr/include/math.h"
 363               		.section	.debug_info,"",@progbits
 364               	.Ldebug_info0:
GAS LISTING /var/folders/86/8ymzt0g934z5dpmztl89nd000000gn/T//ccnQFVyl.s 			page 9


 365 0000 F704 0000 		.long	0x4f7
 366 0004 0200      		.word	0x2
 367 0006 0000 0000 		.long	.Ldebug_abbrev0
 368 000a 04        		.byte	0x4
 369 000b 01        		.uleb128 0x1
 370 000c 0000 0000 		.long	.LASF51
 371 0010 04        		.byte	0x4
 372 0011 0000 0000 		.long	.LASF52
 373 0015 0000 0000 		.long	.LASF53
 374 0019 0000 0000 		.long	.Ltext0
 375 001d 0000 0000 		.long	.Letext0
 376 0021 0000 0000 		.long	.Ldebug_line0
 377 0025 02        		.uleb128 0x2
 378 0026 01        		.byte	0x1
 379 0027 06        		.byte	0x6
 380 0028 0000 0000 		.long	.LASF0
 381 002c 03        		.uleb128 0x3
 382 002d 0000 0000 		.long	.LASF2
 383 0031 02        		.byte	0x2
 384 0032 7A        		.byte	0x7a
 385 0033 3700 0000 		.long	0x37
 386 0037 02        		.uleb128 0x2
 387 0038 01        		.byte	0x1
 388 0039 08        		.byte	0x8
 389 003a 0000 0000 		.long	.LASF1
 390 003e 04        		.uleb128 0x4
 391 003f 02        		.byte	0x2
 392 0040 05        		.byte	0x5
 393 0041 696E 7400 		.string	"int"
 394 0045 03        		.uleb128 0x3
 395 0046 0000 0000 		.long	.LASF3
 396 004a 02        		.byte	0x2
 397 004b 7C        		.byte	0x7c
 398 004c 5000 0000 		.long	0x50
 399 0050 02        		.uleb128 0x2
 400 0051 02        		.byte	0x2
 401 0052 07        		.byte	0x7
 402 0053 0000 0000 		.long	.LASF4
 403 0057 02        		.uleb128 0x2
 404 0058 04        		.byte	0x4
 405 0059 05        		.byte	0x5
 406 005a 0000 0000 		.long	.LASF5
 407 005e 02        		.uleb128 0x2
 408 005f 04        		.byte	0x4
 409 0060 07        		.byte	0x7
 410 0061 0000 0000 		.long	.LASF6
 411 0065 02        		.uleb128 0x2
 412 0066 08        		.byte	0x8
 413 0067 05        		.byte	0x5
 414 0068 0000 0000 		.long	.LASF7
 415 006c 02        		.uleb128 0x2
 416 006d 08        		.byte	0x8
 417 006e 07        		.byte	0x7
 418 006f 0000 0000 		.long	.LASF8
 419 0073 05        		.uleb128 0x5
 420 0074 0000 0000 		.long	.LASF24
 421 0078 01        		.byte	0x1
GAS LISTING /var/folders/86/8ymzt0g934z5dpmztl89nd000000gn/T//ccnQFVyl.s 			page 10


 422 0079 03        		.byte	0x3
 423 007a 0E        		.byte	0xe
 424 007b 6801 0000 		.long	0x168
 425 007f 06        		.uleb128 0x6
 426 0080 01        		.byte	0x1
 427 0081 0000 0000 		.long	.LASF13
 428 0085 03        		.byte	0x3
 429 0086 13        		.byte	0x13
 430 0087 0000 0000 		.long	.LASF15
 431 008b 01        		.byte	0x1
 432 008c 9400 0000 		.long	0x94
 433 0090 9B00 0000 		.long	0x9b
 434 0094 07        		.uleb128 0x7
 435 0095 6801 0000 		.long	0x168
 436 0099 01        		.byte	0x1
 437 009a 00        		.byte	0
 438 009b 08        		.uleb128 0x8
 439 009c 01        		.byte	0x1
 440 009d 0000 0000 		.long	.LASF9
 441 00a1 03        		.byte	0x3
 442 00a2 14        		.byte	0x14
 443 00a3 0000 0000 		.long	.LASF11
 444 00a7 6E01 0000 		.long	0x16e
 445 00ab 01        		.byte	0x1
 446 00ac B400 0000 		.long	0xb4
 447 00b0 BB00 0000 		.long	0xbb
 448 00b4 07        		.uleb128 0x7
 449 00b5 6801 0000 		.long	0x168
 450 00b9 01        		.byte	0x1
 451 00ba 00        		.byte	0
 452 00bb 08        		.uleb128 0x8
 453 00bc 01        		.byte	0x1
 454 00bd 0000 0000 		.long	.LASF10
 455 00c1 03        		.byte	0x3
 456 00c2 15        		.byte	0x15
 457 00c3 0000 0000 		.long	.LASF12
 458 00c7 6E01 0000 		.long	0x16e
 459 00cb 01        		.byte	0x1
 460 00cc D400 0000 		.long	0xd4
 461 00d0 DB00 0000 		.long	0xdb
 462 00d4 07        		.uleb128 0x7
 463 00d5 6801 0000 		.long	0x168
 464 00d9 01        		.byte	0x1
 465 00da 00        		.byte	0
 466 00db 06        		.uleb128 0x6
 467 00dc 01        		.byte	0x1
 468 00dd 0000 0000 		.long	.LASF14
 469 00e1 03        		.byte	0x3
 470 00e2 16        		.byte	0x16
 471 00e3 0000 0000 		.long	.LASF16
 472 00e7 01        		.byte	0x1
 473 00e8 F000 0000 		.long	0xf0
 474 00ec F700 0000 		.long	0xf7
 475 00f0 07        		.uleb128 0x7
 476 00f1 6801 0000 		.long	0x168
 477 00f5 01        		.byte	0x1
 478 00f6 00        		.byte	0
GAS LISTING /var/folders/86/8ymzt0g934z5dpmztl89nd000000gn/T//ccnQFVyl.s 			page 11


 479 00f7 06        		.uleb128 0x6
 480 00f8 01        		.byte	0x1
 481 00f9 0000 0000 		.long	.LASF17
 482 00fd 03        		.byte	0x3
 483 00fe 17        		.byte	0x17
 484 00ff 0000 0000 		.long	.LASF18
 485 0103 01        		.byte	0x1
 486 0104 0C01 0000 		.long	0x10c
 487 0108 1801 0000 		.long	0x118
 488 010c 07        		.uleb128 0x7
 489 010d 6801 0000 		.long	0x168
 490 0111 01        		.byte	0x1
 491 0112 09        		.uleb128 0x9
 492 0113 2C00 0000 		.long	0x2c
 493 0117 00        		.byte	0
 494 0118 06        		.uleb128 0x6
 495 0119 01        		.byte	0x1
 496 011a 0000 0000 		.long	.LASF19
 497 011e 03        		.byte	0x3
 498 011f 18        		.byte	0x18
 499 0120 0000 0000 		.long	.LASF20
 500 0124 01        		.byte	0x1
 501 0125 2D01 0000 		.long	0x12d
 502 0129 3401 0000 		.long	0x134
 503 012d 07        		.uleb128 0x7
 504 012e 6801 0000 		.long	0x168
 505 0132 01        		.byte	0x1
 506 0133 00        		.byte	0
 507 0134 08        		.uleb128 0x8
 508 0135 01        		.byte	0x1
 509 0136 0000 0000 		.long	.LASF21
 510 013a 03        		.byte	0x3
 511 013b 19        		.byte	0x19
 512 013c 0000 0000 		.long	.LASF22
 513 0140 3700 0000 		.long	0x37
 514 0144 01        		.byte	0x1
 515 0145 4D01 0000 		.long	0x14d
 516 0149 5401 0000 		.long	0x154
 517 014d 07        		.uleb128 0x7
 518 014e 6801 0000 		.long	0x168
 519 0152 01        		.byte	0x1
 520 0153 00        		.byte	0
 521 0154 0A        		.uleb128 0xa
 522 0155 01        		.byte	0x1
 523 0156 0000 0000 		.long	.LASF36
 524 015a 03        		.byte	0x3
 525 015b 1B        		.byte	0x1b
 526 015c 0000 0000 		.long	.LASF38
 527 0160 01        		.byte	0x1
 528 0161 09        		.uleb128 0x9
 529 0162 4500 0000 		.long	0x45
 530 0166 00        		.byte	0
 531 0167 00        		.byte	0
 532 0168 0B        		.uleb128 0xb
 533 0169 02        		.byte	0x2
 534 016a 7300 0000 		.long	0x73
 535 016e 02        		.uleb128 0x2
GAS LISTING /var/folders/86/8ymzt0g934z5dpmztl89nd000000gn/T//ccnQFVyl.s 			page 12


 536 016f 01        		.byte	0x1
 537 0170 02        		.byte	0x2
 538 0171 0000 0000 		.long	.LASF23
 539 0175 05        		.uleb128 0x5
 540 0176 0000 0000 		.long	.LASF25
 541 017a 02        		.byte	0x2
 542 017b 04        		.byte	0x4
 543 017c 07        		.byte	0x7
 544 017d 5E02 0000 		.long	0x25e
 545 0181 0C        		.uleb128 0xc
 546 0182 0000 0000 		.long	.LASF26
 547 0186 04        		.byte	0x4
 548 0187 18        		.byte	0x18
 549 0188 5E02 0000 		.long	0x25e
 550 018c 02        		.byte	0x2
 551 018d 23        		.byte	0x23
 552 018e 00        		.uleb128 0
 553 018f 03        		.byte	0x3
 554 0190 0C        		.uleb128 0xc
 555 0191 0000 0000 		.long	.LASF27
 556 0195 04        		.byte	0x4
 557 0196 19        		.byte	0x19
 558 0197 5E02 0000 		.long	0x25e
 559 019b 02        		.byte	0x2
 560 019c 23        		.byte	0x23
 561 019d 01        		.uleb128 0x1
 562 019e 03        		.byte	0x3
 563 019f 0D        		.uleb128 0xd
 564 01a0 01        		.byte	0x1
 565 01a1 0000 0000 		.long	.LASF25
 566 01a5 04        		.byte	0x4
 567 01a6 09        		.byte	0x9
 568 01a7 01        		.byte	0x1
 569 01a8 B001 0000 		.long	0x1b0
 570 01ac C101 0000 		.long	0x1c1
 571 01b0 07        		.uleb128 0x7
 572 01b1 6302 0000 		.long	0x263
 573 01b5 01        		.byte	0x1
 574 01b6 09        		.uleb128 0x9
 575 01b7 2C00 0000 		.long	0x2c
 576 01bb 09        		.uleb128 0x9
 577 01bc 2C00 0000 		.long	0x2c
 578 01c0 00        		.byte	0
 579 01c1 06        		.uleb128 0x6
 580 01c2 01        		.byte	0x1
 581 01c3 0000 0000 		.long	.LASF28
 582 01c7 04        		.byte	0x4
 583 01c8 0C        		.byte	0xc
 584 01c9 0000 0000 		.long	.LASF29
 585 01cd 01        		.byte	0x1
 586 01ce D601 0000 		.long	0x1d6
 587 01d2 E201 0000 		.long	0x1e2
 588 01d6 07        		.uleb128 0x7
 589 01d7 6302 0000 		.long	0x263
 590 01db 01        		.byte	0x1
 591 01dc 09        		.uleb128 0x9
 592 01dd 2C00 0000 		.long	0x2c
GAS LISTING /var/folders/86/8ymzt0g934z5dpmztl89nd000000gn/T//ccnQFVyl.s 			page 13


 593 01e1 00        		.byte	0
 594 01e2 06        		.uleb128 0x6
 595 01e3 01        		.byte	0x1
 596 01e4 0000 0000 		.long	.LASF30
 597 01e8 04        		.byte	0x4
 598 01e9 0E        		.byte	0xe
 599 01ea 0000 0000 		.long	.LASF31
 600 01ee 01        		.byte	0x1
 601 01ef F701 0000 		.long	0x1f7
 602 01f3 0302 0000 		.long	0x203
 603 01f7 07        		.uleb128 0x7
 604 01f8 6302 0000 		.long	0x263
 605 01fc 01        		.byte	0x1
 606 01fd 09        		.uleb128 0x9
 607 01fe 2C00 0000 		.long	0x2c
 608 0202 00        		.byte	0
 609 0203 06        		.uleb128 0x6
 610 0204 01        		.byte	0x1
 611 0205 0000 0000 		.long	.LASF32
 612 0209 04        		.byte	0x4
 613 020a 10        		.byte	0x10
 614 020b 0000 0000 		.long	.LASF33
 615 020f 01        		.byte	0x1
 616 0210 1802 0000 		.long	0x218
 617 0214 2402 0000 		.long	0x224
 618 0218 07        		.uleb128 0x7
 619 0219 6302 0000 		.long	0x263
 620 021d 01        		.byte	0x1
 621 021e 09        		.uleb128 0x9
 622 021f 2C00 0000 		.long	0x2c
 623 0223 00        		.byte	0
 624 0224 06        		.uleb128 0x6
 625 0225 01        		.byte	0x1
 626 0226 0000 0000 		.long	.LASF34
 627 022a 04        		.byte	0x4
 628 022b 12        		.byte	0x12
 629 022c 0000 0000 		.long	.LASF35
 630 0230 01        		.byte	0x1
 631 0231 3902 0000 		.long	0x239
 632 0235 4002 0000 		.long	0x240
 633 0239 07        		.uleb128 0x7
 634 023a 6302 0000 		.long	0x263
 635 023e 01        		.byte	0x1
 636 023f 00        		.byte	0
 637 0240 0A        		.uleb128 0xa
 638 0241 01        		.byte	0x1
 639 0242 0000 0000 		.long	.LASF37
 640 0246 04        		.byte	0x4
 641 0247 15        		.byte	0x15
 642 0248 0000 0000 		.long	.LASF39
 643 024c 01        		.byte	0x1
 644 024d 09        		.uleb128 0x9
 645 024e 2C00 0000 		.long	0x2c
 646 0252 09        		.uleb128 0x9
 647 0253 2C00 0000 		.long	0x2c
 648 0257 09        		.uleb128 0x9
 649 0258 2C00 0000 		.long	0x2c
GAS LISTING /var/folders/86/8ymzt0g934z5dpmztl89nd000000gn/T//ccnQFVyl.s 			page 14


 650 025c 00        		.byte	0
 651 025d 00        		.byte	0
 652 025e 0E        		.uleb128 0xe
 653 025f 2C00 0000 		.long	0x2c
 654 0263 0B        		.uleb128 0xb
 655 0264 02        		.byte	0x2
 656 0265 7501 0000 		.long	0x175
 657 0269 0F        		.uleb128 0xf
 658 026a 9F01 0000 		.long	0x19f
 659 026e 01        		.byte	0x1
 660 026f 03        		.byte	0x3
 661 0270 00        		.byte	0
 662 0271 7902 0000 		.long	0x279
 663 0275 9A02 0000 		.long	0x29a
 664 0279 10        		.uleb128 0x10
 665 027a 0000 0000 		.long	.LASF45
 666 027e 9A02 0000 		.long	0x29a
 667 0282 01        		.byte	0x1
 668 0283 11        		.uleb128 0x11
 669 0284 0000 0000 		.long	.LASF40
 670 0288 01        		.byte	0x1
 671 0289 03        		.byte	0x3
 672 028a 2C00 0000 		.long	0x2c
 673 028e 11        		.uleb128 0x11
 674 028f 0000 0000 		.long	.LASF41
 675 0293 01        		.byte	0x1
 676 0294 03        		.byte	0x3
 677 0295 2C00 0000 		.long	0x2c
 678 0299 00        		.byte	0
 679 029a 0E        		.uleb128 0xe
 680 029b 6302 0000 		.long	0x263
 681 029f 12        		.uleb128 0x12
 682 02a0 6902 0000 		.long	0x269
 683 02a4 0000 0000 		.long	.LASF54
 684 02a8 0000 0000 		.long	.LFB7
 685 02ac 0000 0000 		.long	.LFE7
 686 02b0 03        		.byte	0x3
 687 02b1 92        		.byte	0x92
 688 02b2 20        		.uleb128 0x20
 689 02b3 02        		.sleb128 2
 690 02b4 BD02 0000 		.long	0x2bd
 691 02b8 01        		.byte	0x1
 692 02b9 D802 0000 		.long	0x2d8
 693 02bd 13        		.uleb128 0x13
 694 02be 7902 0000 		.long	0x279
 695 02c2 06        		.byte	0x6
 696 02c3 68        		.byte	0x68
 697 02c4 93        		.byte	0x93
 698 02c5 01        		.uleb128 0x1
 699 02c6 69        		.byte	0x69
 700 02c7 93        		.byte	0x93
 701 02c8 01        		.uleb128 0x1
 702 02c9 13        		.uleb128 0x13
 703 02ca 8302 0000 		.long	0x283
 704 02ce 01        		.byte	0x1
 705 02cf 66        		.byte	0x66
 706 02d0 13        		.uleb128 0x13
GAS LISTING /var/folders/86/8ymzt0g934z5dpmztl89nd000000gn/T//ccnQFVyl.s 			page 15


 707 02d1 8E02 0000 		.long	0x28e
 708 02d5 01        		.byte	0x1
 709 02d6 64        		.byte	0x64
 710 02d7 00        		.byte	0
 711 02d8 14        		.uleb128 0x14
 712 02d9 4002 0000 		.long	0x240
 713 02dd 01        		.byte	0x1
 714 02de 37        		.byte	0x37
 715 02df 0000 0000 		.long	.LFB13
 716 02e3 0000 0000 		.long	.LFE13
 717 02e7 03        		.byte	0x3
 718 02e8 92        		.byte	0x92
 719 02e9 20        		.uleb128 0x20
 720 02ea 02        		.sleb128 2
 721 02eb 01        		.byte	0x1
 722 02ec 1C03 0000 		.long	0x31c
 723 02f0 15        		.uleb128 0x15
 724 02f1 0000 0000 		.long	.LASF42
 725 02f5 01        		.byte	0x1
 726 02f6 37        		.byte	0x37
 727 02f7 2C00 0000 		.long	0x2c
 728 02fb 0000 0000 		.long	.LLST0
 729 02ff 16        		.uleb128 0x16
 730 0300 0000 0000 		.long	.LASF43
 731 0304 01        		.byte	0x1
 732 0305 37        		.byte	0x37
 733 0306 2C00 0000 		.long	0x2c
 734 030a 01        		.byte	0x1
 735 030b 66        		.byte	0x66
 736 030c 15        		.uleb128 0x15
 737 030d 0000 0000 		.long	.LASF44
 738 0311 01        		.byte	0x1
 739 0312 37        		.byte	0x37
 740 0313 2C00 0000 		.long	0x2c
 741 0317 0000 0000 		.long	.LLST1
 742 031b 00        		.byte	0
 743 031c 17        		.uleb128 0x17
 744 031d C101 0000 		.long	0x1c1
 745 0321 01        		.byte	0x1
 746 0322 07        		.byte	0x7
 747 0323 0000 0000 		.long	.LFB9
 748 0327 0000 0000 		.long	.LFE9
 749 032b 0000 0000 		.long	.LLST2
 750 032f 3803 0000 		.long	0x338
 751 0333 01        		.byte	0x1
 752 0334 9C03 0000 		.long	0x39c
 753 0338 18        		.uleb128 0x18
 754 0339 0000 0000 		.long	.LASF45
 755 033d 9A02 0000 		.long	0x29a
 756 0341 01        		.byte	0x1
 757 0342 0000 0000 		.long	.LLST3
 758 0346 15        		.uleb128 0x15
 759 0347 0000 0000 		.long	.LASF44
 760 034b 01        		.byte	0x1
 761 034c 07        		.byte	0x7
 762 034d 2C00 0000 		.long	0x2c
 763 0351 0000 0000 		.long	.LLST4
GAS LISTING /var/folders/86/8ymzt0g934z5dpmztl89nd000000gn/T//ccnQFVyl.s 			page 16


 764 0355 19        		.uleb128 0x19
 765 0356 0000 0000 		.long	.Ldebug_ranges0+0
 766 035a 1A        		.uleb128 0x1a
 767 035b 0000 0000 		.long	.LASF46
 768 035f 01        		.byte	0x1
 769 0360 09        		.byte	0x9
 770 0361 2C00 0000 		.long	0x2c
 771 0365 0000 0000 		.long	.LLST5
 772 0369 1A        		.uleb128 0x1a
 773 036a 0000 0000 		.long	.LASF47
 774 036e 01        		.byte	0x1
 775 036f 0A        		.byte	0xa
 776 0370 2C00 0000 		.long	0x2c
 777 0374 0000 0000 		.long	.LLST6
 778 0378 1B        		.uleb128 0x1b
 779 0379 0000 0000 		.long	.LVL9
 780 037d DB04 0000 		.long	0x4db
 781 0381 1B        		.uleb128 0x1b
 782 0382 0000 0000 		.long	.LVL16
 783 0386 DB04 0000 		.long	0x4db
 784 038a 1C        		.uleb128 0x1c
 785 038b 0000 0000 		.long	.LVL20
 786 038f 01        		.byte	0x1
 787 0390 D802 0000 		.long	0x2d8
 788 0394 1D        		.uleb128 0x1d
 789 0395 01        		.byte	0x1
 790 0396 64        		.byte	0x64
 791 0397 01        		.byte	0x1
 792 0398 30        		.byte	0x30
 793 0399 00        		.byte	0
 794 039a 00        		.byte	0
 795 039b 00        		.byte	0
 796 039c 17        		.uleb128 0x17
 797 039d E201 0000 		.long	0x1e2
 798 03a1 01        		.byte	0x1
 799 03a2 16        		.byte	0x16
 800 03a3 0000 0000 		.long	.LFB10
 801 03a7 0000 0000 		.long	.LFE10
 802 03ab 0000 0000 		.long	.LLST7
 803 03af B803 0000 		.long	0x3b8
 804 03b3 01        		.byte	0x1
 805 03b4 1C04 0000 		.long	0x41c
 806 03b8 18        		.uleb128 0x18
 807 03b9 0000 0000 		.long	.LASF45
 808 03bd 9A02 0000 		.long	0x29a
 809 03c1 01        		.byte	0x1
 810 03c2 0000 0000 		.long	.LLST8
 811 03c6 15        		.uleb128 0x15
 812 03c7 0000 0000 		.long	.LASF44
 813 03cb 01        		.byte	0x1
 814 03cc 16        		.byte	0x16
 815 03cd 2C00 0000 		.long	0x2c
 816 03d1 0000 0000 		.long	.LLST9
 817 03d5 19        		.uleb128 0x19
 818 03d6 0000 0000 		.long	.Ldebug_ranges0+0x18
 819 03da 1A        		.uleb128 0x1a
 820 03db 0000 0000 		.long	.LASF46
GAS LISTING /var/folders/86/8ymzt0g934z5dpmztl89nd000000gn/T//ccnQFVyl.s 			page 17


 821 03df 01        		.byte	0x1
 822 03e0 18        		.byte	0x18
 823 03e1 2C00 0000 		.long	0x2c
 824 03e5 0000 0000 		.long	.LLST10
 825 03e9 1A        		.uleb128 0x1a
 826 03ea 0000 0000 		.long	.LASF47
 827 03ee 01        		.byte	0x1
 828 03ef 19        		.byte	0x19
 829 03f0 2C00 0000 		.long	0x2c
 830 03f4 0000 0000 		.long	.LLST11
 831 03f8 1B        		.uleb128 0x1b
 832 03f9 0000 0000 		.long	.LVL26
 833 03fd DB04 0000 		.long	0x4db
 834 0401 1B        		.uleb128 0x1b
 835 0402 0000 0000 		.long	.LVL33
 836 0406 DB04 0000 		.long	0x4db
 837 040a 1C        		.uleb128 0x1c
 838 040b 0000 0000 		.long	.LVL37
 839 040f 01        		.byte	0x1
 840 0410 D802 0000 		.long	0x2d8
 841 0414 1D        		.uleb128 0x1d
 842 0415 01        		.byte	0x1
 843 0416 64        		.byte	0x64
 844 0417 01        		.byte	0x1
 845 0418 33        		.byte	0x33
 846 0419 00        		.byte	0
 847 041a 00        		.byte	0
 848 041b 00        		.byte	0
 849 041c 1E        		.uleb128 0x1e
 850 041d 2402 0000 		.long	0x224
 851 0421 01        		.byte	0x1
 852 0422 33        		.byte	0x33
 853 0423 0000 0000 		.long	.LFB12
 854 0427 0000 0000 		.long	.LFE12
 855 042b 03        		.byte	0x3
 856 042c 92        		.byte	0x92
 857 042d 20        		.uleb128 0x20
 858 042e 02        		.sleb128 2
 859 042f 3804 0000 		.long	0x438
 860 0433 01        		.byte	0x1
 861 0434 6104 0000 		.long	0x461
 862 0438 18        		.uleb128 0x18
 863 0439 0000 0000 		.long	.LASF45
 864 043d 9A02 0000 		.long	0x29a
 865 0441 01        		.byte	0x1
 866 0442 0000 0000 		.long	.LLST12
 867 0446 1C        		.uleb128 0x1c
 868 0447 0000 0000 		.long	.LVL40
 869 044b 01        		.byte	0x1
 870 044c D802 0000 		.long	0x2d8
 871 0450 1D        		.uleb128 0x1d
 872 0451 01        		.byte	0x1
 873 0452 68        		.byte	0x68
 874 0453 01        		.byte	0x1
 875 0454 30        		.byte	0x30
 876 0455 1D        		.uleb128 0x1d
 877 0456 01        		.byte	0x1
GAS LISTING /var/folders/86/8ymzt0g934z5dpmztl89nd000000gn/T//ccnQFVyl.s 			page 18


 878 0457 66        		.byte	0x66
 879 0458 01        		.byte	0x1
 880 0459 30        		.byte	0x30
 881 045a 1D        		.uleb128 0x1d
 882 045b 01        		.byte	0x1
 883 045c 64        		.byte	0x64
 884 045d 01        		.byte	0x1
 885 045e 30        		.byte	0x30
 886 045f 00        		.byte	0
 887 0460 00        		.byte	0
 888 0461 1F        		.uleb128 0x1f
 889 0462 0302 0000 		.long	0x203
 890 0466 01        		.byte	0x1
 891 0467 25        		.byte	0x25
 892 0468 0000 0000 		.long	.LFB11
 893 046c 0000 0000 		.long	.LFE11
 894 0470 0000 0000 		.long	.LLST13
 895 0474 7D04 0000 		.long	0x47d
 896 0478 01        		.byte	0x1
 897 0479 DB04 0000 		.long	0x4db
 898 047d 18        		.uleb128 0x18
 899 047e 0000 0000 		.long	.LASF45
 900 0482 9A02 0000 		.long	0x29a
 901 0486 01        		.byte	0x1
 902 0487 0000 0000 		.long	.LLST14
 903 048b 15        		.uleb128 0x15
 904 048c 0000 0000 		.long	.LASF48
 905 0490 01        		.byte	0x1
 906 0491 25        		.byte	0x25
 907 0492 2C00 0000 		.long	0x2c
 908 0496 0000 0000 		.long	.LLST15
 909 049a 1B        		.uleb128 0x1b
 910 049b 0000 0000 		.long	.LVL44
 911 049f D802 0000 		.long	0x2d8
 912 04a3 20        		.uleb128 0x20
 913 04a4 0000 0000 		.long	.LVL45
 914 04a8 5401 0000 		.long	0x154
 915 04ac C304 0000 		.long	0x4c3
 916 04b0 1D        		.uleb128 0x1d
 917 04b1 06        		.byte	0x6
 918 04b2 68        		.byte	0x68
 919 04b3 93        		.byte	0x93
 920 04b4 01        		.uleb128 0x1
 921 04b5 69        		.byte	0x69
 922 04b6 93        		.byte	0x93
 923 04b7 01        		.uleb128 0x1
 924 04b8 09        		.byte	0x9
 925 04b9 81        		.byte	0x81
 926 04ba 00        		.sleb128 0
 927 04bb 08        		.byte	0x8
 928 04bc FF        		.byte	0xff
 929 04bd 1A        		.byte	0x1a
 930 04be 3A        		.byte	0x3a
 931 04bf 1E        		.byte	0x1e
 932 04c0 23        		.byte	0x23
 933 04c1 64        		.uleb128 0x64
 934 04c2 00        		.byte	0
GAS LISTING /var/folders/86/8ymzt0g934z5dpmztl89nd000000gn/T//ccnQFVyl.s 			page 19


 935 04c3 1C        		.uleb128 0x1c
 936 04c4 0000 0000 		.long	.LVL48
 937 04c8 01        		.byte	0x1
 938 04c9 1C04 0000 		.long	0x41c
 939 04cd 1D        		.uleb128 0x1d
 940 04ce 06        		.byte	0x6
 941 04cf 68        		.byte	0x68
 942 04d0 93        		.byte	0x93
 943 04d1 01        		.uleb128 0x1
 944 04d2 69        		.byte	0x69
 945 04d3 93        		.byte	0x93
 946 04d4 01        		.uleb128 0x1
 947 04d5 03        		.byte	0x3
 948 04d6 F3        		.byte	0xf3
 949 04d7 01        		.uleb128 0x1
 950 04d8 68        		.byte	0x68
 951 04d9 00        		.byte	0
 952 04da 00        		.byte	0
 953 04db 21        		.uleb128 0x21
 954 04dc 01        		.byte	0x1
 955 04dd 0000 0000 		.long	.LASF49
 956 04e1 05        		.byte	0x5
 957 04e2 AA01      		.word	0x1aa
 958 04e4 F304 0000 		.long	0x4f3
 959 04e8 01        		.byte	0x1
 960 04e9 F304 0000 		.long	0x4f3
 961 04ed 09        		.uleb128 0x9
 962 04ee F304 0000 		.long	0x4f3
 963 04f2 00        		.byte	0
 964 04f3 02        		.uleb128 0x2
 965 04f4 04        		.byte	0x4
 966 04f5 04        		.byte	0x4
 967 04f6 0000 0000 		.long	.LASF50
 968 04fa 00        		.byte	0
 969               		.section	.debug_abbrev,"",@progbits
 970               	.Ldebug_abbrev0:
 971 0000 01        		.uleb128 0x1
 972 0001 11        		.uleb128 0x11
 973 0002 01        		.byte	0x1
 974 0003 25        		.uleb128 0x25
 975 0004 0E        		.uleb128 0xe
 976 0005 13        		.uleb128 0x13
 977 0006 0B        		.uleb128 0xb
 978 0007 03        		.uleb128 0x3
 979 0008 0E        		.uleb128 0xe
 980 0009 1B        		.uleb128 0x1b
 981 000a 0E        		.uleb128 0xe
 982 000b 11        		.uleb128 0x11
 983 000c 01        		.uleb128 0x1
 984 000d 12        		.uleb128 0x12
 985 000e 01        		.uleb128 0x1
 986 000f 10        		.uleb128 0x10
 987 0010 06        		.uleb128 0x6
 988 0011 00        		.byte	0
 989 0012 00        		.byte	0
 990 0013 02        		.uleb128 0x2
 991 0014 24        		.uleb128 0x24
GAS LISTING /var/folders/86/8ymzt0g934z5dpmztl89nd000000gn/T//ccnQFVyl.s 			page 20


 992 0015 00        		.byte	0
 993 0016 0B        		.uleb128 0xb
 994 0017 0B        		.uleb128 0xb
 995 0018 3E        		.uleb128 0x3e
 996 0019 0B        		.uleb128 0xb
 997 001a 03        		.uleb128 0x3
 998 001b 0E        		.uleb128 0xe
 999 001c 00        		.byte	0
 1000 001d 00        		.byte	0
 1001 001e 03        		.uleb128 0x3
 1002 001f 16        		.uleb128 0x16
 1003 0020 00        		.byte	0
 1004 0021 03        		.uleb128 0x3
 1005 0022 0E        		.uleb128 0xe
 1006 0023 3A        		.uleb128 0x3a
 1007 0024 0B        		.uleb128 0xb
 1008 0025 3B        		.uleb128 0x3b
 1009 0026 0B        		.uleb128 0xb
 1010 0027 49        		.uleb128 0x49
 1011 0028 13        		.uleb128 0x13
 1012 0029 00        		.byte	0
 1013 002a 00        		.byte	0
 1014 002b 04        		.uleb128 0x4
 1015 002c 24        		.uleb128 0x24
 1016 002d 00        		.byte	0
 1017 002e 0B        		.uleb128 0xb
 1018 002f 0B        		.uleb128 0xb
 1019 0030 3E        		.uleb128 0x3e
 1020 0031 0B        		.uleb128 0xb
 1021 0032 03        		.uleb128 0x3
 1022 0033 08        		.uleb128 0x8
 1023 0034 00        		.byte	0
 1024 0035 00        		.byte	0
 1025 0036 05        		.uleb128 0x5
 1026 0037 02        		.uleb128 0x2
 1027 0038 01        		.byte	0x1
 1028 0039 03        		.uleb128 0x3
 1029 003a 0E        		.uleb128 0xe
 1030 003b 0B        		.uleb128 0xb
 1031 003c 0B        		.uleb128 0xb
 1032 003d 3A        		.uleb128 0x3a
 1033 003e 0B        		.uleb128 0xb
 1034 003f 3B        		.uleb128 0x3b
 1035 0040 0B        		.uleb128 0xb
 1036 0041 01        		.uleb128 0x1
 1037 0042 13        		.uleb128 0x13
 1038 0043 00        		.byte	0
 1039 0044 00        		.byte	0
 1040 0045 06        		.uleb128 0x6
 1041 0046 2E        		.uleb128 0x2e
 1042 0047 01        		.byte	0x1
 1043 0048 3F        		.uleb128 0x3f
 1044 0049 0C        		.uleb128 0xc
 1045 004a 03        		.uleb128 0x3
 1046 004b 0E        		.uleb128 0xe
 1047 004c 3A        		.uleb128 0x3a
 1048 004d 0B        		.uleb128 0xb
GAS LISTING /var/folders/86/8ymzt0g934z5dpmztl89nd000000gn/T//ccnQFVyl.s 			page 21


 1049 004e 3B        		.uleb128 0x3b
 1050 004f 0B        		.uleb128 0xb
 1051 0050 8740      		.uleb128 0x2007
 1052 0052 0E        		.uleb128 0xe
 1053 0053 3C        		.uleb128 0x3c
 1054 0054 0C        		.uleb128 0xc
 1055 0055 64        		.uleb128 0x64
 1056 0056 13        		.uleb128 0x13
 1057 0057 01        		.uleb128 0x1
 1058 0058 13        		.uleb128 0x13
 1059 0059 00        		.byte	0
 1060 005a 00        		.byte	0
 1061 005b 07        		.uleb128 0x7
 1062 005c 05        		.uleb128 0x5
 1063 005d 00        		.byte	0
 1064 005e 49        		.uleb128 0x49
 1065 005f 13        		.uleb128 0x13
 1066 0060 34        		.uleb128 0x34
 1067 0061 0C        		.uleb128 0xc
 1068 0062 00        		.byte	0
 1069 0063 00        		.byte	0
 1070 0064 08        		.uleb128 0x8
 1071 0065 2E        		.uleb128 0x2e
 1072 0066 01        		.byte	0x1
 1073 0067 3F        		.uleb128 0x3f
 1074 0068 0C        		.uleb128 0xc
 1075 0069 03        		.uleb128 0x3
 1076 006a 0E        		.uleb128 0xe
 1077 006b 3A        		.uleb128 0x3a
 1078 006c 0B        		.uleb128 0xb
 1079 006d 3B        		.uleb128 0x3b
 1080 006e 0B        		.uleb128 0xb
 1081 006f 8740      		.uleb128 0x2007
 1082 0071 0E        		.uleb128 0xe
 1083 0072 49        		.uleb128 0x49
 1084 0073 13        		.uleb128 0x13
 1085 0074 3C        		.uleb128 0x3c
 1086 0075 0C        		.uleb128 0xc
 1087 0076 64        		.uleb128 0x64
 1088 0077 13        		.uleb128 0x13
 1089 0078 01        		.uleb128 0x1
 1090 0079 13        		.uleb128 0x13
 1091 007a 00        		.byte	0
 1092 007b 00        		.byte	0
 1093 007c 09        		.uleb128 0x9
 1094 007d 05        		.uleb128 0x5
 1095 007e 00        		.byte	0
 1096 007f 49        		.uleb128 0x49
 1097 0080 13        		.uleb128 0x13
 1098 0081 00        		.byte	0
 1099 0082 00        		.byte	0
 1100 0083 0A        		.uleb128 0xa
 1101 0084 2E        		.uleb128 0x2e
 1102 0085 01        		.byte	0x1
 1103 0086 3F        		.uleb128 0x3f
 1104 0087 0C        		.uleb128 0xc
 1105 0088 03        		.uleb128 0x3
GAS LISTING /var/folders/86/8ymzt0g934z5dpmztl89nd000000gn/T//ccnQFVyl.s 			page 22


 1106 0089 0E        		.uleb128 0xe
 1107 008a 3A        		.uleb128 0x3a
 1108 008b 0B        		.uleb128 0xb
 1109 008c 3B        		.uleb128 0x3b
 1110 008d 0B        		.uleb128 0xb
 1111 008e 8740      		.uleb128 0x2007
 1112 0090 0E        		.uleb128 0xe
 1113 0091 3C        		.uleb128 0x3c
 1114 0092 0C        		.uleb128 0xc
 1115 0093 00        		.byte	0
 1116 0094 00        		.byte	0
 1117 0095 0B        		.uleb128 0xb
 1118 0096 0F        		.uleb128 0xf
 1119 0097 00        		.byte	0
 1120 0098 0B        		.uleb128 0xb
 1121 0099 0B        		.uleb128 0xb
 1122 009a 49        		.uleb128 0x49
 1123 009b 13        		.uleb128 0x13
 1124 009c 00        		.byte	0
 1125 009d 00        		.byte	0
 1126 009e 0C        		.uleb128 0xc
 1127 009f 0D        		.uleb128 0xd
 1128 00a0 00        		.byte	0
 1129 00a1 03        		.uleb128 0x3
 1130 00a2 0E        		.uleb128 0xe
 1131 00a3 3A        		.uleb128 0x3a
 1132 00a4 0B        		.uleb128 0xb
 1133 00a5 3B        		.uleb128 0x3b
 1134 00a6 0B        		.uleb128 0xb
 1135 00a7 49        		.uleb128 0x49
 1136 00a8 13        		.uleb128 0x13
 1137 00a9 38        		.uleb128 0x38
 1138 00aa 0A        		.uleb128 0xa
 1139 00ab 32        		.uleb128 0x32
 1140 00ac 0B        		.uleb128 0xb
 1141 00ad 00        		.byte	0
 1142 00ae 00        		.byte	0
 1143 00af 0D        		.uleb128 0xd
 1144 00b0 2E        		.uleb128 0x2e
 1145 00b1 01        		.byte	0x1
 1146 00b2 3F        		.uleb128 0x3f
 1147 00b3 0C        		.uleb128 0xc
 1148 00b4 03        		.uleb128 0x3
 1149 00b5 0E        		.uleb128 0xe
 1150 00b6 3A        		.uleb128 0x3a
 1151 00b7 0B        		.uleb128 0xb
 1152 00b8 3B        		.uleb128 0x3b
 1153 00b9 0B        		.uleb128 0xb
 1154 00ba 3C        		.uleb128 0x3c
 1155 00bb 0C        		.uleb128 0xc
 1156 00bc 64        		.uleb128 0x64
 1157 00bd 13        		.uleb128 0x13
 1158 00be 01        		.uleb128 0x1
 1159 00bf 13        		.uleb128 0x13
 1160 00c0 00        		.byte	0
 1161 00c1 00        		.byte	0
 1162 00c2 0E        		.uleb128 0xe
GAS LISTING /var/folders/86/8ymzt0g934z5dpmztl89nd000000gn/T//ccnQFVyl.s 			page 23


 1163 00c3 26        		.uleb128 0x26
 1164 00c4 00        		.byte	0
 1165 00c5 49        		.uleb128 0x49
 1166 00c6 13        		.uleb128 0x13
 1167 00c7 00        		.byte	0
 1168 00c8 00        		.byte	0
 1169 00c9 0F        		.uleb128 0xf
 1170 00ca 2E        		.uleb128 0x2e
 1171 00cb 01        		.byte	0x1
 1172 00cc 47        		.uleb128 0x47
 1173 00cd 13        		.uleb128 0x13
 1174 00ce 3A        		.uleb128 0x3a
 1175 00cf 0B        		.uleb128 0xb
 1176 00d0 3B        		.uleb128 0x3b
 1177 00d1 0B        		.uleb128 0xb
 1178 00d2 20        		.uleb128 0x20
 1179 00d3 0B        		.uleb128 0xb
 1180 00d4 64        		.uleb128 0x64
 1181 00d5 13        		.uleb128 0x13
 1182 00d6 01        		.uleb128 0x1
 1183 00d7 13        		.uleb128 0x13
 1184 00d8 00        		.byte	0
 1185 00d9 00        		.byte	0
 1186 00da 10        		.uleb128 0x10
 1187 00db 05        		.uleb128 0x5
 1188 00dc 00        		.byte	0
 1189 00dd 03        		.uleb128 0x3
 1190 00de 0E        		.uleb128 0xe
 1191 00df 49        		.uleb128 0x49
 1192 00e0 13        		.uleb128 0x13
 1193 00e1 34        		.uleb128 0x34
 1194 00e2 0C        		.uleb128 0xc
 1195 00e3 00        		.byte	0
 1196 00e4 00        		.byte	0
 1197 00e5 11        		.uleb128 0x11
 1198 00e6 05        		.uleb128 0x5
 1199 00e7 00        		.byte	0
 1200 00e8 03        		.uleb128 0x3
 1201 00e9 0E        		.uleb128 0xe
 1202 00ea 3A        		.uleb128 0x3a
 1203 00eb 0B        		.uleb128 0xb
 1204 00ec 3B        		.uleb128 0x3b
 1205 00ed 0B        		.uleb128 0xb
 1206 00ee 49        		.uleb128 0x49
 1207 00ef 13        		.uleb128 0x13
 1208 00f0 00        		.byte	0
 1209 00f1 00        		.byte	0
 1210 00f2 12        		.uleb128 0x12
 1211 00f3 2E        		.uleb128 0x2e
 1212 00f4 01        		.byte	0x1
 1213 00f5 31        		.uleb128 0x31
 1214 00f6 13        		.uleb128 0x13
 1215 00f7 8740      		.uleb128 0x2007
 1216 00f9 0E        		.uleb128 0xe
 1217 00fa 11        		.uleb128 0x11
 1218 00fb 01        		.uleb128 0x1
 1219 00fc 12        		.uleb128 0x12
GAS LISTING /var/folders/86/8ymzt0g934z5dpmztl89nd000000gn/T//ccnQFVyl.s 			page 24


 1220 00fd 01        		.uleb128 0x1
 1221 00fe 40        		.uleb128 0x40
 1222 00ff 0A        		.uleb128 0xa
 1223 0100 64        		.uleb128 0x64
 1224 0101 13        		.uleb128 0x13
 1225 0102 9742      		.uleb128 0x2117
 1226 0104 0C        		.uleb128 0xc
 1227 0105 01        		.uleb128 0x1
 1228 0106 13        		.uleb128 0x13
 1229 0107 00        		.byte	0
 1230 0108 00        		.byte	0
 1231 0109 13        		.uleb128 0x13
 1232 010a 05        		.uleb128 0x5
 1233 010b 00        		.byte	0
 1234 010c 31        		.uleb128 0x31
 1235 010d 13        		.uleb128 0x13
 1236 010e 02        		.uleb128 0x2
 1237 010f 0A        		.uleb128 0xa
 1238 0110 00        		.byte	0
 1239 0111 00        		.byte	0
 1240 0112 14        		.uleb128 0x14
 1241 0113 2E        		.uleb128 0x2e
 1242 0114 01        		.byte	0x1
 1243 0115 47        		.uleb128 0x47
 1244 0116 13        		.uleb128 0x13
 1245 0117 3A        		.uleb128 0x3a
 1246 0118 0B        		.uleb128 0xb
 1247 0119 3B        		.uleb128 0x3b
 1248 011a 0B        		.uleb128 0xb
 1249 011b 11        		.uleb128 0x11
 1250 011c 01        		.uleb128 0x1
 1251 011d 12        		.uleb128 0x12
 1252 011e 01        		.uleb128 0x1
 1253 011f 40        		.uleb128 0x40
 1254 0120 0A        		.uleb128 0xa
 1255 0121 9742      		.uleb128 0x2117
 1256 0123 0C        		.uleb128 0xc
 1257 0124 01        		.uleb128 0x1
 1258 0125 13        		.uleb128 0x13
 1259 0126 00        		.byte	0
 1260 0127 00        		.byte	0
 1261 0128 15        		.uleb128 0x15
 1262 0129 05        		.uleb128 0x5
 1263 012a 00        		.byte	0
 1264 012b 03        		.uleb128 0x3
 1265 012c 0E        		.uleb128 0xe
 1266 012d 3A        		.uleb128 0x3a
 1267 012e 0B        		.uleb128 0xb
 1268 012f 3B        		.uleb128 0x3b
 1269 0130 0B        		.uleb128 0xb
 1270 0131 49        		.uleb128 0x49
 1271 0132 13        		.uleb128 0x13
 1272 0133 02        		.uleb128 0x2
 1273 0134 06        		.uleb128 0x6
 1274 0135 00        		.byte	0
 1275 0136 00        		.byte	0
 1276 0137 16        		.uleb128 0x16
GAS LISTING /var/folders/86/8ymzt0g934z5dpmztl89nd000000gn/T//ccnQFVyl.s 			page 25


 1277 0138 05        		.uleb128 0x5
 1278 0139 00        		.byte	0
 1279 013a 03        		.uleb128 0x3
 1280 013b 0E        		.uleb128 0xe
 1281 013c 3A        		.uleb128 0x3a
 1282 013d 0B        		.uleb128 0xb
 1283 013e 3B        		.uleb128 0x3b
 1284 013f 0B        		.uleb128 0xb
 1285 0140 49        		.uleb128 0x49
 1286 0141 13        		.uleb128 0x13
 1287 0142 02        		.uleb128 0x2
 1288 0143 0A        		.uleb128 0xa
 1289 0144 00        		.byte	0
 1290 0145 00        		.byte	0
 1291 0146 17        		.uleb128 0x17
 1292 0147 2E        		.uleb128 0x2e
 1293 0148 01        		.byte	0x1
 1294 0149 47        		.uleb128 0x47
 1295 014a 13        		.uleb128 0x13
 1296 014b 3A        		.uleb128 0x3a
 1297 014c 0B        		.uleb128 0xb
 1298 014d 3B        		.uleb128 0x3b
 1299 014e 0B        		.uleb128 0xb
 1300 014f 11        		.uleb128 0x11
 1301 0150 01        		.uleb128 0x1
 1302 0151 12        		.uleb128 0x12
 1303 0152 01        		.uleb128 0x1
 1304 0153 40        		.uleb128 0x40
 1305 0154 06        		.uleb128 0x6
 1306 0155 64        		.uleb128 0x64
 1307 0156 13        		.uleb128 0x13
 1308 0157 9642      		.uleb128 0x2116
 1309 0159 0C        		.uleb128 0xc
 1310 015a 01        		.uleb128 0x1
 1311 015b 13        		.uleb128 0x13
 1312 015c 00        		.byte	0
 1313 015d 00        		.byte	0
 1314 015e 18        		.uleb128 0x18
 1315 015f 05        		.uleb128 0x5
 1316 0160 00        		.byte	0
 1317 0161 03        		.uleb128 0x3
 1318 0162 0E        		.uleb128 0xe
 1319 0163 49        		.uleb128 0x49
 1320 0164 13        		.uleb128 0x13
 1321 0165 34        		.uleb128 0x34
 1322 0166 0C        		.uleb128 0xc
 1323 0167 02        		.uleb128 0x2
 1324 0168 06        		.uleb128 0x6
 1325 0169 00        		.byte	0
 1326 016a 00        		.byte	0
 1327 016b 19        		.uleb128 0x19
 1328 016c 0B        		.uleb128 0xb
 1329 016d 01        		.byte	0x1
 1330 016e 55        		.uleb128 0x55
 1331 016f 06        		.uleb128 0x6
 1332 0170 00        		.byte	0
 1333 0171 00        		.byte	0
GAS LISTING /var/folders/86/8ymzt0g934z5dpmztl89nd000000gn/T//ccnQFVyl.s 			page 26


 1334 0172 1A        		.uleb128 0x1a
 1335 0173 34        		.uleb128 0x34
 1336 0174 00        		.byte	0
 1337 0175 03        		.uleb128 0x3
 1338 0176 0E        		.uleb128 0xe
 1339 0177 3A        		.uleb128 0x3a
 1340 0178 0B        		.uleb128 0xb
 1341 0179 3B        		.uleb128 0x3b
 1342 017a 0B        		.uleb128 0xb
 1343 017b 49        		.uleb128 0x49
 1344 017c 13        		.uleb128 0x13
 1345 017d 02        		.uleb128 0x2
 1346 017e 06        		.uleb128 0x6
 1347 017f 00        		.byte	0
 1348 0180 00        		.byte	0
 1349 0181 1B        		.uleb128 0x1b
 1350 0182 8982 01   		.uleb128 0x4109
 1351 0185 00        		.byte	0
 1352 0186 11        		.uleb128 0x11
 1353 0187 01        		.uleb128 0x1
 1354 0188 31        		.uleb128 0x31
 1355 0189 13        		.uleb128 0x13
 1356 018a 00        		.byte	0
 1357 018b 00        		.byte	0
 1358 018c 1C        		.uleb128 0x1c
 1359 018d 8982 01   		.uleb128 0x4109
 1360 0190 01        		.byte	0x1
 1361 0191 11        		.uleb128 0x11
 1362 0192 01        		.uleb128 0x1
 1363 0193 9542      		.uleb128 0x2115
 1364 0195 0C        		.uleb128 0xc
 1365 0196 31        		.uleb128 0x31
 1366 0197 13        		.uleb128 0x13
 1367 0198 00        		.byte	0
 1368 0199 00        		.byte	0
 1369 019a 1D        		.uleb128 0x1d
 1370 019b 8A82 01   		.uleb128 0x410a
 1371 019e 00        		.byte	0
 1372 019f 02        		.uleb128 0x2
 1373 01a0 0A        		.uleb128 0xa
 1374 01a1 9142      		.uleb128 0x2111
 1375 01a3 0A        		.uleb128 0xa
 1376 01a4 00        		.byte	0
 1377 01a5 00        		.byte	0
 1378 01a6 1E        		.uleb128 0x1e
 1379 01a7 2E        		.uleb128 0x2e
 1380 01a8 01        		.byte	0x1
 1381 01a9 47        		.uleb128 0x47
 1382 01aa 13        		.uleb128 0x13
 1383 01ab 3A        		.uleb128 0x3a
 1384 01ac 0B        		.uleb128 0xb
 1385 01ad 3B        		.uleb128 0x3b
 1386 01ae 0B        		.uleb128 0xb
 1387 01af 11        		.uleb128 0x11
 1388 01b0 01        		.uleb128 0x1
 1389 01b1 12        		.uleb128 0x12
 1390 01b2 01        		.uleb128 0x1
GAS LISTING /var/folders/86/8ymzt0g934z5dpmztl89nd000000gn/T//ccnQFVyl.s 			page 27


 1391 01b3 40        		.uleb128 0x40
 1392 01b4 0A        		.uleb128 0xa
 1393 01b5 64        		.uleb128 0x64
 1394 01b6 13        		.uleb128 0x13
 1395 01b7 9742      		.uleb128 0x2117
 1396 01b9 0C        		.uleb128 0xc
 1397 01ba 01        		.uleb128 0x1
 1398 01bb 13        		.uleb128 0x13
 1399 01bc 00        		.byte	0
 1400 01bd 00        		.byte	0
 1401 01be 1F        		.uleb128 0x1f
 1402 01bf 2E        		.uleb128 0x2e
 1403 01c0 01        		.byte	0x1
 1404 01c1 47        		.uleb128 0x47
 1405 01c2 13        		.uleb128 0x13
 1406 01c3 3A        		.uleb128 0x3a
 1407 01c4 0B        		.uleb128 0xb
 1408 01c5 3B        		.uleb128 0x3b
 1409 01c6 0B        		.uleb128 0xb
 1410 01c7 11        		.uleb128 0x11
 1411 01c8 01        		.uleb128 0x1
 1412 01c9 12        		.uleb128 0x12
 1413 01ca 01        		.uleb128 0x1
 1414 01cb 40        		.uleb128 0x40
 1415 01cc 06        		.uleb128 0x6
 1416 01cd 64        		.uleb128 0x64
 1417 01ce 13        		.uleb128 0x13
 1418 01cf 9742      		.uleb128 0x2117
 1419 01d1 0C        		.uleb128 0xc
 1420 01d2 01        		.uleb128 0x1
 1421 01d3 13        		.uleb128 0x13
 1422 01d4 00        		.byte	0
 1423 01d5 00        		.byte	0
 1424 01d6 20        		.uleb128 0x20
 1425 01d7 8982 01   		.uleb128 0x4109
 1426 01da 01        		.byte	0x1
 1427 01db 11        		.uleb128 0x11
 1428 01dc 01        		.uleb128 0x1
 1429 01dd 31        		.uleb128 0x31
 1430 01de 13        		.uleb128 0x13
 1431 01df 01        		.uleb128 0x1
 1432 01e0 13        		.uleb128 0x13
 1433 01e1 00        		.byte	0
 1434 01e2 00        		.byte	0
 1435 01e3 21        		.uleb128 0x21
 1436 01e4 2E        		.uleb128 0x2e
 1437 01e5 01        		.byte	0x1
 1438 01e6 3F        		.uleb128 0x3f
 1439 01e7 0C        		.uleb128 0xc
 1440 01e8 03        		.uleb128 0x3
 1441 01e9 0E        		.uleb128 0xe
 1442 01ea 3A        		.uleb128 0x3a
 1443 01eb 0B        		.uleb128 0xb
 1444 01ec 3B        		.uleb128 0x3b
 1445 01ed 05        		.uleb128 0x5
 1446 01ee 49        		.uleb128 0x49
 1447 01ef 13        		.uleb128 0x13
GAS LISTING /var/folders/86/8ymzt0g934z5dpmztl89nd000000gn/T//ccnQFVyl.s 			page 28


 1448 01f0 3C        		.uleb128 0x3c
 1449 01f1 0C        		.uleb128 0xc
 1450 01f2 01        		.uleb128 0x1
 1451 01f3 13        		.uleb128 0x13
 1452 01f4 00        		.byte	0
 1453 01f5 00        		.byte	0
 1454 01f6 00        		.byte	0
 1455               		.section	.debug_loc,"",@progbits
 1456               	.Ldebug_loc0:
 1457               	.LLST0:
 1458 0000 0800 0000 		.long	.LVL1-.Ltext0
 1459 0004 3200 0000 		.long	.LVL2-.Ltext0
 1460 0008 0100      		.word	0x1
 1461 000a 68        		.byte	0x68
 1462 000b 3200 0000 		.long	.LVL2-.Ltext0
 1463 000f 4600 0000 		.long	.LFE13-.Ltext0
 1464 0013 0400      		.word	0x4
 1465 0015 F3        		.byte	0xf3
 1466 0016 01        		.uleb128 0x1
 1467 0017 68        		.byte	0x68
 1468 0018 9F        		.byte	0x9f
 1469 0019 0000 0000 		.long	0
 1470 001d 0000 0000 		.long	0
 1471               	.LLST1:
 1472 0021 0800 0000 		.long	.LVL1-.Ltext0
 1473 0025 4000 0000 		.long	.LVL3-.Ltext0
 1474 0029 0100      		.word	0x1
 1475 002b 64        		.byte	0x64
 1476 002c 4000 0000 		.long	.LVL3-.Ltext0
 1477 0030 4600 0000 		.long	.LFE13-.Ltext0
 1478 0034 0400      		.word	0x4
 1479 0036 F3        		.byte	0xf3
 1480 0037 01        		.uleb128 0x1
 1481 0038 64        		.byte	0x64
 1482 0039 9F        		.byte	0x9f
 1483 003a 0000 0000 		.long	0
 1484 003e 0000 0000 		.long	0
 1485               	.LLST2:
 1486 0042 4600 0000 		.long	.LFB9-.Ltext0
 1487 0046 4800 0000 		.long	.LCFI0-.Ltext0
 1488 004a 0300      		.word	0x3
 1489 004c 92        		.byte	0x92
 1490 004d 20        		.uleb128 0x20
 1491 004e 02        		.sleb128 2
 1492 004f 4800 0000 		.long	.LCFI0-.Ltext0
 1493 0053 B200 0000 		.long	.LFE9-.Ltext0
 1494 0057 0300      		.word	0x3
 1495 0059 92        		.byte	0x92
 1496 005a 20        		.uleb128 0x20
 1497 005b 03        		.sleb128 3
 1498 005c 0000 0000 		.long	0
 1499 0060 0000 0000 		.long	0
 1500               	.LLST3:
 1501 0064 4600 0000 		.long	.LVL4-.Ltext0
 1502 0068 5600 0000 		.long	.LVL6-.Ltext0
 1503 006c 0600      		.word	0x6
 1504 006e 68        		.byte	0x68
GAS LISTING /var/folders/86/8ymzt0g934z5dpmztl89nd000000gn/T//ccnQFVyl.s 			page 29


 1505 006f 93        		.byte	0x93
 1506 0070 01        		.uleb128 0x1
 1507 0071 69        		.byte	0x69
 1508 0072 93        		.byte	0x93
 1509 0073 01        		.uleb128 0x1
 1510 0074 5600 0000 		.long	.LVL6-.Ltext0
 1511 0078 6900 0000 		.long	.LVL8-1-.Ltext0
 1512 007c 0600      		.word	0x6
 1513 007e 6E        		.byte	0x6e
 1514 007f 93        		.byte	0x93
 1515 0080 01        		.uleb128 0x1
 1516 0081 6F        		.byte	0x6f
 1517 0082 93        		.byte	0x93
 1518 0083 01        		.uleb128 0x1
 1519 0084 6900 0000 		.long	.LVL8-1-.Ltext0
 1520 0088 7800 0000 		.long	.LVL12-.Ltext0
 1521 008c 0400      		.word	0x4
 1522 008e F3        		.byte	0xf3
 1523 008f 01        		.uleb128 0x1
 1524 0090 68        		.byte	0x68
 1525 0091 9F        		.byte	0x9f
 1526 0092 7800 0000 		.long	.LVL12-.Ltext0
 1527 0096 8A00 0000 		.long	.LVL13-.Ltext0
 1528 009a 0600      		.word	0x6
 1529 009c 68        		.byte	0x68
 1530 009d 93        		.byte	0x93
 1531 009e 01        		.uleb128 0x1
 1532 009f 69        		.byte	0x69
 1533 00a0 93        		.byte	0x93
 1534 00a1 01        		.uleb128 0x1
 1535 00a2 8A00 0000 		.long	.LVL13-.Ltext0
 1536 00a6 9D00 0000 		.long	.LVL15-1-.Ltext0
 1537 00aa 0600      		.word	0x6
 1538 00ac 6E        		.byte	0x6e
 1539 00ad 93        		.byte	0x93
 1540 00ae 01        		.uleb128 0x1
 1541 00af 6F        		.byte	0x6f
 1542 00b0 93        		.byte	0x93
 1543 00b1 01        		.uleb128 0x1
 1544 00b2 9D00 0000 		.long	.LVL15-1-.Ltext0
 1545 00b6 B200 0000 		.long	.LFE9-.Ltext0
 1546 00ba 0400      		.word	0x4
 1547 00bc F3        		.byte	0xf3
 1548 00bd 01        		.uleb128 0x1
 1549 00be 68        		.byte	0x68
 1550 00bf 9F        		.byte	0x9f
 1551 00c0 0000 0000 		.long	0
 1552 00c4 0000 0000 		.long	0
 1553               	.LLST4:
 1554 00c8 4600 0000 		.long	.LVL4-.Ltext0
 1555 00cc 5A00 0000 		.long	.LVL7-.Ltext0
 1556 00d0 0100      		.word	0x1
 1557 00d2 66        		.byte	0x66
 1558 00d3 5A00 0000 		.long	.LVL7-.Ltext0
 1559 00d7 7800 0000 		.long	.LVL12-.Ltext0
 1560 00db 0400      		.word	0x4
 1561 00dd F3        		.byte	0xf3
GAS LISTING /var/folders/86/8ymzt0g934z5dpmztl89nd000000gn/T//ccnQFVyl.s 			page 30


 1562 00de 01        		.uleb128 0x1
 1563 00df 66        		.byte	0x66
 1564 00e0 9F        		.byte	0x9f
 1565 00e1 7800 0000 		.long	.LVL12-.Ltext0
 1566 00e5 8E00 0000 		.long	.LVL14-.Ltext0
 1567 00e9 0100      		.word	0x1
 1568 00eb 66        		.byte	0x66
 1569 00ec 8E00 0000 		.long	.LVL14-.Ltext0
 1570 00f0 B200 0000 		.long	.LFE9-.Ltext0
 1571 00f4 0400      		.word	0x4
 1572 00f6 F3        		.byte	0xf3
 1573 00f7 01        		.uleb128 0x1
 1574 00f8 66        		.byte	0x66
 1575 00f9 9F        		.byte	0x9f
 1576 00fa 0000 0000 		.long	0
 1577 00fe 0000 0000 		.long	0
 1578               	.LLST5:
 1579 0102 4C00 0000 		.long	.LVL5-.Ltext0
 1580 0106 7600 0000 		.long	.LVL11-.Ltext0
 1581 010a 0100      		.word	0x1
 1582 010c 6C        		.byte	0x6c
 1583 010d 7600 0000 		.long	.LVL11-.Ltext0
 1584 0111 7800 0000 		.long	.LVL12-.Ltext0
 1585 0115 0100      		.word	0x1
 1586 0117 68        		.byte	0x68
 1587 0118 7800 0000 		.long	.LVL12-.Ltext0
 1588 011c A800 0000 		.long	.LVL18-.Ltext0
 1589 0120 0100      		.word	0x1
 1590 0122 6C        		.byte	0x6c
 1591 0123 A800 0000 		.long	.LVL18-.Ltext0
 1592 0127 B100 0000 		.long	.LVL20-1-.Ltext0
 1593 012b 0100      		.word	0x1
 1594 012d 68        		.byte	0x68
 1595 012e 0000 0000 		.long	0
 1596 0132 0000 0000 		.long	0
 1597               	.LLST6:
 1598 0136 4C00 0000 		.long	.LVL5-.Ltext0
 1599 013a 7200 0000 		.long	.LVL10-.Ltext0
 1600 013e 0100      		.word	0x1
 1601 0140 6C        		.byte	0x6c
 1602 0141 7200 0000 		.long	.LVL10-.Ltext0
 1603 0145 7800 0000 		.long	.LVL12-.Ltext0
 1604 0149 0100      		.word	0x1
 1605 014b 66        		.byte	0x66
 1606 014c 7800 0000 		.long	.LVL12-.Ltext0
 1607 0150 AE00 0000 		.long	.LVL19-.Ltext0
 1608 0154 0100      		.word	0x1
 1609 0156 6C        		.byte	0x6c
 1610 0157 AE00 0000 		.long	.LVL19-.Ltext0
 1611 015b B100 0000 		.long	.LVL20-1-.Ltext0
 1612 015f 0100      		.word	0x1
 1613 0161 66        		.byte	0x66
 1614 0162 0000 0000 		.long	0
 1615 0166 0000 0000 		.long	0
 1616               	.LLST7:
 1617 016a B200 0000 		.long	.LFB10-.Ltext0
 1618 016e B400 0000 		.long	.LCFI1-.Ltext0
GAS LISTING /var/folders/86/8ymzt0g934z5dpmztl89nd000000gn/T//ccnQFVyl.s 			page 31


 1619 0172 0300      		.word	0x3
 1620 0174 92        		.byte	0x92
 1621 0175 20        		.uleb128 0x20
 1622 0176 02        		.sleb128 2
 1623 0177 B400 0000 		.long	.LCFI1-.Ltext0
 1624 017b 1E01 0000 		.long	.LFE10-.Ltext0
 1625 017f 0300      		.word	0x3
 1626 0181 92        		.byte	0x92
 1627 0182 20        		.uleb128 0x20
 1628 0183 03        		.sleb128 3
 1629 0184 0000 0000 		.long	0
 1630 0188 0000 0000 		.long	0
 1631               	.LLST8:
 1632 018c B200 0000 		.long	.LVL21-.Ltext0
 1633 0190 C200 0000 		.long	.LVL23-.Ltext0
 1634 0194 0600      		.word	0x6
 1635 0196 68        		.byte	0x68
 1636 0197 93        		.byte	0x93
 1637 0198 01        		.uleb128 0x1
 1638 0199 69        		.byte	0x69
 1639 019a 93        		.byte	0x93
 1640 019b 01        		.uleb128 0x1
 1641 019c C200 0000 		.long	.LVL23-.Ltext0
 1642 01a0 D500 0000 		.long	.LVL25-1-.Ltext0
 1643 01a4 0600      		.word	0x6
 1644 01a6 6E        		.byte	0x6e
 1645 01a7 93        		.byte	0x93
 1646 01a8 01        		.uleb128 0x1
 1647 01a9 6F        		.byte	0x6f
 1648 01aa 93        		.byte	0x93
 1649 01ab 01        		.uleb128 0x1
 1650 01ac D500 0000 		.long	.LVL25-1-.Ltext0
 1651 01b0 E400 0000 		.long	.LVL29-.Ltext0
 1652 01b4 0400      		.word	0x4
 1653 01b6 F3        		.byte	0xf3
 1654 01b7 01        		.uleb128 0x1
 1655 01b8 68        		.byte	0x68
 1656 01b9 9F        		.byte	0x9f
 1657 01ba E400 0000 		.long	.LVL29-.Ltext0
 1658 01be F600 0000 		.long	.LVL30-.Ltext0
 1659 01c2 0600      		.word	0x6
 1660 01c4 68        		.byte	0x68
 1661 01c5 93        		.byte	0x93
 1662 01c6 01        		.uleb128 0x1
 1663 01c7 69        		.byte	0x69
 1664 01c8 93        		.byte	0x93
 1665 01c9 01        		.uleb128 0x1
 1666 01ca F600 0000 		.long	.LVL30-.Ltext0
 1667 01ce 0901 0000 		.long	.LVL32-1-.Ltext0
 1668 01d2 0600      		.word	0x6
 1669 01d4 6E        		.byte	0x6e
 1670 01d5 93        		.byte	0x93
 1671 01d6 01        		.uleb128 0x1
 1672 01d7 6F        		.byte	0x6f
 1673 01d8 93        		.byte	0x93
 1674 01d9 01        		.uleb128 0x1
 1675 01da 0901 0000 		.long	.LVL32-1-.Ltext0
GAS LISTING /var/folders/86/8ymzt0g934z5dpmztl89nd000000gn/T//ccnQFVyl.s 			page 32


 1676 01de 1E01 0000 		.long	.LFE10-.Ltext0
 1677 01e2 0400      		.word	0x4
 1678 01e4 F3        		.byte	0xf3
 1679 01e5 01        		.uleb128 0x1
 1680 01e6 68        		.byte	0x68
 1681 01e7 9F        		.byte	0x9f
 1682 01e8 0000 0000 		.long	0
 1683 01ec 0000 0000 		.long	0
 1684               	.LLST9:
 1685 01f0 B200 0000 		.long	.LVL21-.Ltext0
 1686 01f4 C600 0000 		.long	.LVL24-.Ltext0
 1687 01f8 0100      		.word	0x1
 1688 01fa 66        		.byte	0x66
 1689 01fb C600 0000 		.long	.LVL24-.Ltext0
 1690 01ff E400 0000 		.long	.LVL29-.Ltext0
 1691 0203 0400      		.word	0x4
 1692 0205 F3        		.byte	0xf3
 1693 0206 01        		.uleb128 0x1
 1694 0207 66        		.byte	0x66
 1695 0208 9F        		.byte	0x9f
 1696 0209 E400 0000 		.long	.LVL29-.Ltext0
 1697 020d FA00 0000 		.long	.LVL31-.Ltext0
 1698 0211 0100      		.word	0x1
 1699 0213 66        		.byte	0x66
 1700 0214 FA00 0000 		.long	.LVL31-.Ltext0
 1701 0218 1E01 0000 		.long	.LFE10-.Ltext0
 1702 021c 0400      		.word	0x4
 1703 021e F3        		.byte	0xf3
 1704 021f 01        		.uleb128 0x1
 1705 0220 66        		.byte	0x66
 1706 0221 9F        		.byte	0x9f
 1707 0222 0000 0000 		.long	0
 1708 0226 0000 0000 		.long	0
 1709               	.LLST10:
 1710 022a B800 0000 		.long	.LVL22-.Ltext0
 1711 022e E200 0000 		.long	.LVL28-.Ltext0
 1712 0232 0100      		.word	0x1
 1713 0234 6C        		.byte	0x6c
 1714 0235 E200 0000 		.long	.LVL28-.Ltext0
 1715 0239 E400 0000 		.long	.LVL29-.Ltext0
 1716 023d 0100      		.word	0x1
 1717 023f 68        		.byte	0x68
 1718 0240 E400 0000 		.long	.LVL29-.Ltext0
 1719 0244 1401 0000 		.long	.LVL35-.Ltext0
 1720 0248 0100      		.word	0x1
 1721 024a 6C        		.byte	0x6c
 1722 024b 1401 0000 		.long	.LVL35-.Ltext0
 1723 024f 1D01 0000 		.long	.LVL37-1-.Ltext0
 1724 0253 0100      		.word	0x1
 1725 0255 68        		.byte	0x68
 1726 0256 0000 0000 		.long	0
 1727 025a 0000 0000 		.long	0
 1728               	.LLST11:
 1729 025e B800 0000 		.long	.LVL22-.Ltext0
 1730 0262 DE00 0000 		.long	.LVL27-.Ltext0
 1731 0266 0100      		.word	0x1
 1732 0268 6C        		.byte	0x6c
GAS LISTING /var/folders/86/8ymzt0g934z5dpmztl89nd000000gn/T//ccnQFVyl.s 			page 33


 1733 0269 DE00 0000 		.long	.LVL27-.Ltext0
 1734 026d E400 0000 		.long	.LVL29-.Ltext0
 1735 0271 0100      		.word	0x1
 1736 0273 66        		.byte	0x66
 1737 0274 E400 0000 		.long	.LVL29-.Ltext0
 1738 0278 1A01 0000 		.long	.LVL36-.Ltext0
 1739 027c 0100      		.word	0x1
 1740 027e 6C        		.byte	0x6c
 1741 027f 1A01 0000 		.long	.LVL36-.Ltext0
 1742 0283 1D01 0000 		.long	.LVL37-1-.Ltext0
 1743 0287 0100      		.word	0x1
 1744 0289 66        		.byte	0x66
 1745 028a 0000 0000 		.long	0
 1746 028e 0000 0000 		.long	0
 1747               	.LLST12:
 1748 0292 1E01 0000 		.long	.LVL38-.Ltext0
 1749 0296 2401 0000 		.long	.LVL39-.Ltext0
 1750 029a 0600      		.word	0x6
 1751 029c 68        		.byte	0x68
 1752 029d 93        		.byte	0x93
 1753 029e 01        		.uleb128 0x1
 1754 029f 69        		.byte	0x69
 1755 02a0 93        		.byte	0x93
 1756 02a1 01        		.uleb128 0x1
 1757 02a2 2401 0000 		.long	.LVL39-.Ltext0
 1758 02a6 2801 0000 		.long	.LFE12-.Ltext0
 1759 02aa 0400      		.word	0x4
 1760 02ac F3        		.byte	0xf3
 1761 02ad 01        		.uleb128 0x1
 1762 02ae 68        		.byte	0x68
 1763 02af 9F        		.byte	0x9f
 1764 02b0 0000 0000 		.long	0
 1765 02b4 0000 0000 		.long	0
 1766               	.LLST13:
 1767 02b8 2801 0000 		.long	.LFB11-.Ltext0
 1768 02bc 2A01 0000 		.long	.LCFI2-.Ltext0
 1769 02c0 0300      		.word	0x3
 1770 02c2 92        		.byte	0x92
 1771 02c3 20        		.uleb128 0x20
 1772 02c4 02        		.sleb128 2
 1773 02c5 2A01 0000 		.long	.LCFI2-.Ltext0
 1774 02c9 2C01 0000 		.long	.LCFI3-.Ltext0
 1775 02cd 0300      		.word	0x3
 1776 02cf 92        		.byte	0x92
 1777 02d0 20        		.uleb128 0x20
 1778 02d1 03        		.sleb128 3
 1779 02d2 2C01 0000 		.long	.LCFI3-.Ltext0
 1780 02d6 2E01 0000 		.long	.LCFI4-.Ltext0
 1781 02da 0300      		.word	0x3
 1782 02dc 92        		.byte	0x92
 1783 02dd 20        		.uleb128 0x20
 1784 02de 04        		.sleb128 4
 1785 02df 2E01 0000 		.long	.LCFI4-.Ltext0
 1786 02e3 6001 0000 		.long	.LFE11-.Ltext0
 1787 02e7 0300      		.word	0x3
 1788 02e9 92        		.byte	0x92
 1789 02ea 20        		.uleb128 0x20
GAS LISTING /var/folders/86/8ymzt0g934z5dpmztl89nd000000gn/T//ccnQFVyl.s 			page 34


 1790 02eb 05        		.sleb128 5
 1791 02ec 0000 0000 		.long	0
 1792 02f0 0000 0000 		.long	0
 1793               	.LLST14:
 1794 02f4 2801 0000 		.long	.LVL41-.Ltext0
 1795 02f8 3401 0000 		.long	.LVL42-.Ltext0
 1796 02fc 0600      		.word	0x6
 1797 02fe 68        		.byte	0x68
 1798 02ff 93        		.byte	0x93
 1799 0300 01        		.uleb128 0x1
 1800 0301 69        		.byte	0x69
 1801 0302 93        		.byte	0x93
 1802 0303 01        		.uleb128 0x1
 1803 0304 3401 0000 		.long	.LVL42-.Ltext0
 1804 0308 5A01 0000 		.long	.LVL46-.Ltext0
 1805 030c 0600      		.word	0x6
 1806 030e 6C        		.byte	0x6c
 1807 030f 93        		.byte	0x93
 1808 0310 01        		.uleb128 0x1
 1809 0311 6D        		.byte	0x6d
 1810 0312 93        		.byte	0x93
 1811 0313 01        		.uleb128 0x1
 1812 0314 5A01 0000 		.long	.LVL46-.Ltext0
 1813 0318 5F01 0000 		.long	.LVL48-1-.Ltext0
 1814 031c 0600      		.word	0x6
 1815 031e 68        		.byte	0x68
 1816 031f 93        		.byte	0x93
 1817 0320 01        		.uleb128 0x1
 1818 0321 69        		.byte	0x69
 1819 0322 93        		.byte	0x93
 1820 0323 01        		.uleb128 0x1
 1821 0324 5F01 0000 		.long	.LVL48-1-.Ltext0
 1822 0328 6001 0000 		.long	.LFE11-.Ltext0
 1823 032c 0400      		.word	0x4
 1824 032e F3        		.byte	0xf3
 1825 032f 01        		.uleb128 0x1
 1826 0330 68        		.byte	0x68
 1827 0331 9F        		.byte	0x9f
 1828 0332 0000 0000 		.long	0
 1829 0336 0000 0000 		.long	0
 1830               	.LLST15:
 1831 033a 2801 0000 		.long	.LVL41-.Ltext0
 1832 033e 4001 0000 		.long	.LVL43-.Ltext0
 1833 0342 0100      		.word	0x1
 1834 0344 66        		.byte	0x66
 1835 0345 4001 0000 		.long	.LVL43-.Ltext0
 1836 0349 5C01 0000 		.long	.LVL47-.Ltext0
 1837 034d 0100      		.word	0x1
 1838 034f 61        		.byte	0x61
 1839 0350 5C01 0000 		.long	.LVL47-.Ltext0
 1840 0354 6001 0000 		.long	.LFE11-.Ltext0
 1841 0358 0400      		.word	0x4
 1842 035a F3        		.byte	0xf3
 1843 035b 01        		.uleb128 0x1
 1844 035c 66        		.byte	0x66
 1845 035d 9F        		.byte	0x9f
 1846 035e 0000 0000 		.long	0
GAS LISTING /var/folders/86/8ymzt0g934z5dpmztl89nd000000gn/T//ccnQFVyl.s 			page 35


 1847 0362 0000 0000 		.long	0
 1848               		.section	.debug_aranges,"",@progbits
 1849 0000 1C00 0000 		.long	0x1c
 1850 0004 0200      		.word	0x2
 1851 0006 0000 0000 		.long	.Ldebug_info0
 1852 000a 04        		.byte	0x4
 1853 000b 00        		.byte	0
 1854 000c 0000      		.word	0
 1855 000e 0000      		.word	0
 1856 0010 0000 0000 		.long	.Ltext0
 1857 0014 6001 0000 		.long	.Letext0-.Ltext0
 1858 0018 0000 0000 		.long	0
 1859 001c 0000 0000 		.long	0
 1860               		.section	.debug_ranges,"",@progbits
 1861               	.Ldebug_ranges0:
 1862 0000 4800 0000 		.long	.LBB3-.Ltext0
 1863 0004 AC00 0000 		.long	.LBE3-.Ltext0
 1864 0008 AE00 0000 		.long	.LBB4-.Ltext0
 1865 000c B200 0000 		.long	.LBE4-.Ltext0
 1866 0010 0000 0000 		.long	0
 1867 0014 0000 0000 		.long	0
 1868 0018 B400 0000 		.long	.LBB5-.Ltext0
 1869 001c 1801 0000 		.long	.LBE5-.Ltext0
 1870 0020 1A01 0000 		.long	.LBB6-.Ltext0
 1871 0024 1E01 0000 		.long	.LBE6-.Ltext0
 1872 0028 0000 0000 		.long	0
 1873 002c 0000 0000 		.long	0
 1874               		.section	.debug_line,"",@progbits
 1875               	.Ldebug_line0:
 1876 0000 BD00 0000 		.section	.debug_str,"MS",@progbits,1
 1876      0200 7B00 
 1876      0000 0201 
 1876      FB0E 0A00 
 1876      0101 0101 
 1877               	.LASF16:
 1878 0000 5F5A 4E37 		.string	"_ZN7Utility19initialisationUSARTEv"
 1878      5574 696C 
 1878      6974 7931 
 1878      3969 6E69 
 1878      7469 616C 
 1879               	.LASF21:
 1880 0023 7573 6172 		.string	"usart_receive"
 1880      745F 7265 
 1880      6365 6976 
 1880      6500 
 1881               	.LASF12:
 1882 0031 5F5A 4E37 		.string	"_ZN7Utility16button2IsPressedEv"
 1882      5574 696C 
 1882      6974 7931 
 1882      3662 7574 
 1882      746F 6E32 
 1883               	.LASF52:
 1884 0051 6D6F 7465 		.string	"moteur.cpp"
 1884      7572 2E63 
 1884      7070 00
 1885               	.LASF35:
 1886 005c 5F5A 4E36 		.string	"_ZN6Moteur7arreterEv"
GAS LISTING /var/folders/86/8ymzt0g934z5dpmztl89nd000000gn/T//ccnQFVyl.s 			page 36


 1886      4D6F 7465 
 1886      7572 3761 
 1886      7272 6574 
 1886      6572 4576 
 1887               	.LASF27:
 1888 0071 5649 5445 		.string	"VITESSE_ROTATION"
 1888      5353 455F 
 1888      524F 5441 
 1888      5449 4F4E 
 1888      00
 1889               	.LASF23:
 1890 0082 626F 6F6C 		.string	"bool"
 1890      00
 1891               	.LASF26:
 1892 0087 5649 5445 		.string	"VITESSE"
 1892      5353 4500 
 1893               	.LASF19:
 1894 008f 5553 4152 		.string	"USART_Flush"
 1894      545F 466C 
 1894      7573 6800 
 1895               	.LASF51:
 1896 009b 474E 5520 		.string	"GNU C++ 4.8.1 -mmcu=atmega324pa -g -Os -std=c++98 -fpack-struct -fshort-enums -funsigned-
 1896      432B 2B20 
 1896      342E 382E 
 1896      3120 2D6D 
 1896      6D63 753D 
 1897               	.LASF15:
 1898 013e 5F5A 4E37 		.string	"_ZN7Utility26initialisationInterruptionEv"
 1898      5574 696C 
 1898      6974 7932 
 1898      3669 6E69 
 1898      7469 616C 
 1899               	.LASF44:
 1900 0168 6469 7265 		.string	"direction"
 1900      6374 696F 
 1900      6E00 
 1901               	.LASF42:
 1902 0172 6475 7265 		.string	"dureeA"
 1902      6541 00
 1903               	.LASF43:
 1904 0179 6475 7265 		.string	"dureeB"
 1904      6542 00
 1905               	.LASF36:
 1906 0180 6465 6C61 		.string	"delay"
 1906      7900 
 1907               	.LASF18:
 1908 0186 5F5A 4E37 		.string	"_ZN7Utility17transmissionUSARTEh"
 1908      5574 696C 
 1908      6974 7931 
 1908      3774 7261 
 1908      6E73 6D69 
 1909               	.LASF1:
 1910 01a7 756E 7369 		.string	"unsigned char"
 1910      676E 6564 
 1910      2063 6861 
 1910      7200 
 1911               	.LASF45:
GAS LISTING /var/folders/86/8ymzt0g934z5dpmztl89nd000000gn/T//ccnQFVyl.s 			page 37


 1912 01b5 7468 6973 		.string	"this"
 1912      00
 1913               	.LASF9:
 1914 01ba 6275 7474 		.string	"button1IsPressed"
 1914      6F6E 3149 
 1914      7350 7265 
 1914      7373 6564 
 1914      00
 1915               	.LASF17:
 1916 01cb 7472 616E 		.string	"transmissionUSART"
 1916      736D 6973 
 1916      7369 6F6E 
 1916      5553 4152 
 1916      5400 
 1917               	.LASF29:
 1918 01dd 5F5A 4E36 		.string	"_ZN6Moteur7avancerEh"
 1918      4D6F 7465 
 1918      7572 3761 
 1918      7661 6E63 
 1918      6572 4568 
 1919               	.LASF39:
 1920 01f2 5F5A 4E36 		.string	"_ZN6Moteur16ajustementTimer1Ehhh"
 1920      4D6F 7465 
 1920      7572 3136 
 1920      616A 7573 
 1920      7465 6D65 
 1921               	.LASF6:
 1922 0213 6C6F 6E67 		.string	"long unsigned int"
 1922      2075 6E73 
 1922      6967 6E65 
 1922      6420 696E 
 1922      7400 
 1923               	.LASF20:
 1924 0225 5F5A 4E37 		.string	"_ZN7Utility11USART_FlushEv"
 1924      5574 696C 
 1924      6974 7931 
 1924      3155 5341 
 1924      5254 5F46 
 1925               	.LASF34:
 1926 0240 6172 7265 		.string	"arreter"
 1926      7465 7200 
 1927               	.LASF24:
 1928 0248 5574 696C 		.string	"Utility"
 1928      6974 7900 
 1929               	.LASF10:
 1930 0250 6275 7474 		.string	"button2IsPressed"
 1930      6F6E 3249 
 1930      7350 7265 
 1930      7373 6564 
 1930      00
 1931               	.LASF22:
 1932 0261 5F5A 4E37 		.string	"_ZN7Utility13usart_receiveEv"
 1932      5574 696C 
 1932      6974 7931 
 1932      3375 7361 
 1932      7274 5F72 
 1933               	.LASF50:
GAS LISTING /var/folders/86/8ymzt0g934z5dpmztl89nd000000gn/T//ccnQFVyl.s 			page 38


 1934 027e 646F 7562 		.string	"double"
 1934      6C65 00
 1935               	.LASF53:
 1936 0285 2F55 7365 		.string	"/Users/Esteban/dev/robot-poly/lib_dir"
 1936      7273 2F45 
 1936      7374 6562 
 1936      616E 2F64 
 1936      6576 2F72 
 1937               	.LASF37:
 1938 02ab 616A 7573 		.string	"ajustementTimer1"
 1938      7465 6D65 
 1938      6E74 5469 
 1938      6D65 7231 
 1938      00
 1939               	.LASF41:
 1940 02bc 7669 7465 		.string	"vitesseRotation"
 1940      7373 6552 
 1940      6F74 6174 
 1940      696F 6E00 
 1941               	.LASF49:
 1942 02cc 726F 756E 		.string	"round"
 1942      6400 
 1943               	.LASF32:
 1944 02d2 746F 7572 		.string	"tourner"
 1944      6E65 7200 
 1945               	.LASF28:
 1946 02da 6176 616E 		.string	"avancer"
 1946      6365 7200 
 1947               	.LASF4:
 1948 02e2 756E 7369 		.string	"unsigned int"
 1948      676E 6564 
 1948      2069 6E74 
 1948      00
 1949               	.LASF8:
 1950 02ef 6C6F 6E67 		.string	"long long unsigned int"
 1950      206C 6F6E 
 1950      6720 756E 
 1950      7369 676E 
 1950      6564 2069 
 1951               	.LASF2:
 1952 0306 7569 6E74 		.string	"uint8_t"
 1952      385F 7400 
 1953               	.LASF11:
 1954 030e 5F5A 4E37 		.string	"_ZN7Utility16button1IsPressedEv"
 1954      5574 696C 
 1954      6974 7931 
 1954      3662 7574 
 1954      746F 6E31 
 1955               	.LASF13:
 1956 032e 696E 6974 		.string	"initialisationInterruption"
 1956      6961 6C69 
 1956      7361 7469 
 1956      6F6E 496E 
 1956      7465 7272 
 1957               	.LASF54:
 1958 0349 5F5A 4E36 		.string	"_ZN6MoteurC2Ehh"
 1958      4D6F 7465 
GAS LISTING /var/folders/86/8ymzt0g934z5dpmztl89nd000000gn/T//ccnQFVyl.s 			page 39


 1958      7572 4332 
 1958      4568 6800 
 1959               	.LASF31:
 1960 0359 5F5A 4E36 		.string	"_ZN6Moteur7reculerEh"
 1960      4D6F 7465 
 1960      7572 3772 
 1960      6563 756C 
 1960      6572 4568 
 1961               	.LASF7:
 1962 036e 6C6F 6E67 		.string	"long long int"
 1962      206C 6F6E 
 1962      6720 696E 
 1962      7400 
 1963               	.LASF30:
 1964 037c 7265 6375 		.string	"reculer"
 1964      6C65 7200 
 1965               	.LASF33:
 1966 0384 5F5A 4E36 		.string	"_ZN6Moteur7tournerEh"
 1966      4D6F 7465 
 1966      7572 3774 
 1966      6F75 726E 
 1966      6572 4568 
 1967               	.LASF38:
 1968 0399 5F5A 4E37 		.string	"_ZN7Utility5delayEj"
 1968      5574 696C 
 1968      6974 7935 
 1968      6465 6C61 
 1968      7945 6A00 
 1969               	.LASF14:
 1970 03ad 696E 6974 		.string	"initialisationUSART"
 1970      6961 6C69 
 1970      7361 7469 
 1970      6F6E 5553 
 1970      4152 5400 
 1971               	.LASF3:
 1972 03c1 7569 6E74 		.string	"uint16_t"
 1972      3136 5F74 
 1972      00
 1973               	.LASF40:
 1974 03ca 7669 7465 		.string	"vitesse"
 1974      7373 6500 
 1975               	.LASF25:
 1976 03d2 4D6F 7465 		.string	"Moteur"
 1976      7572 00
 1977               	.LASF5:
 1978 03d9 6C6F 6E67 		.string	"long int"
 1978      2069 6E74 
 1978      00
 1979               	.LASF48:
 1980 03e2 6465 6772 		.string	"degree"
 1980      6565 00
 1981               	.LASF0:
 1982 03e9 7369 676E 		.string	"signed char"
 1982      6564 2063 
 1982      6861 7200 
 1983               	.LASF46:
 1984 03f5 7669 7465 		.string	"vitesseA"
GAS LISTING /var/folders/86/8ymzt0g934z5dpmztl89nd000000gn/T//ccnQFVyl.s 			page 40


 1984      7373 6541 
 1984      00
 1985               	.LASF47:
 1986 03fe 7669 7465 		.string	"vitesseB"
 1986      7373 6542 
 1986      00
 1987               		.ident	"GCC: (GNU) 4.8.1"
GAS LISTING /var/folders/86/8ymzt0g934z5dpmztl89nd000000gn/T//ccnQFVyl.s 			page 41


DEFINED SYMBOLS
                            *ABS*:00000000 moteur.cpp
/var/folders/86/8ymzt0g934z5dpmztl89nd000000gn/T//ccnQFVyl.s:2      *ABS*:0000003e __SP_H__
/var/folders/86/8ymzt0g934z5dpmztl89nd000000gn/T//ccnQFVyl.s:3      *ABS*:0000003d __SP_L__
/var/folders/86/8ymzt0g934z5dpmztl89nd000000gn/T//ccnQFVyl.s:4      *ABS*:0000003f __SREG__
/var/folders/86/8ymzt0g934z5dpmztl89nd000000gn/T//ccnQFVyl.s:5      *ABS*:00000000 __tmp_reg__
/var/folders/86/8ymzt0g934z5dpmztl89nd000000gn/T//ccnQFVyl.s:6      *ABS*:00000001 __zero_reg__
/var/folders/86/8ymzt0g934z5dpmztl89nd000000gn/T//ccnQFVyl.s:12     .text:00000000 _ZN6MoteurC2Ehh
/var/folders/86/8ymzt0g934z5dpmztl89nd000000gn/T//ccnQFVyl.s:12     .text:00000000 _ZN6MoteurC1Ehh
/var/folders/86/8ymzt0g934z5dpmztl89nd000000gn/T//ccnQFVyl.s:36     .text:00000008 _ZN6Moteur16ajustementTimer1Ehhh
/var/folders/86/8ymzt0g934z5dpmztl89nd000000gn/T//ccnQFVyl.s:86     .text:00000046 _ZN6Moteur7avancerEh
/var/folders/86/8ymzt0g934z5dpmztl89nd000000gn/T//ccnQFVyl.s:180    .text:000000b2 _ZN6Moteur7reculerEh
/var/folders/86/8ymzt0g934z5dpmztl89nd000000gn/T//ccnQFVyl.s:274    .text:0000011e _ZN6Moteur7arreterEv
/var/folders/86/8ymzt0g934z5dpmztl89nd000000gn/T//ccnQFVyl.s:295    .text:00000128 _ZN6Moteur7tournerEh

UNDEFINED SYMBOLS
__floatsisf
__fixunssfsi
__divmodhi4
round
_ZN7Utility5delayEj
