GAS LISTING /var/folders/86/8ymzt0g934z5dpmztl89nd000000gn/T//cchcDLWH.s 			page 1


   1               		.file	"moteur.cpp"
   2               	__SP_H__ = 0x3e
   3               	__SP_L__ = 0x3d
   4               	__SREG__ = 0x3f
   5               	__tmp_reg__ = 0
   6               	__zero_reg__ = 1
   7               		.text
   8               	.Ltext0:
   9               		.cfi_sections	.debug_frame
  10               	.global	_ZN6MoteurC2Ehh
  11               		.type	_ZN6MoteurC2Ehh, @function
  12               	_ZN6MoteurC2Ehh:
  13               	.LFB7:
  14               		.file 1 "moteur.cpp"
   1:moteur.cpp    **** #include "moteur.h"
   2:moteur.cpp    **** 
   3:moteur.cpp    **** Moteur::Moteur(uint8_t vitesse, uint8_t vitesseRotation) : VITESSE(vitesse), VITESSE_ROTATION(vites
  15               		.loc 1 3 0
  16               		.cfi_startproc
  17               	.LVL0:
  18               	/* prologue: function */
  19               	/* frame size = 0 */
  20               	/* stack size = 0 */
  21               	.L__stack_usage = 0
  22               	.LBB2:
  23               		.loc 1 3 0
  24 0000 FC01      		movw r30,r24
  25 0002 6083      		st Z,r22
  26 0004 4183      		std Z+1,r20
  27 0006 0895      		ret
  28               	.LBE2:
  29               		.cfi_endproc
  30               	.LFE7:
  31               		.size	_ZN6MoteurC2Ehh, .-_ZN6MoteurC2Ehh
  32               	.global	_ZN6MoteurC1Ehh
  33               		.set	_ZN6MoteurC1Ehh,_ZN6MoteurC2Ehh
  34               	.global	_ZN6Moteur16ajustementTimer1Ehhh
  35               		.type	_ZN6Moteur16ajustementTimer1Ehhh, @function
  36               	_ZN6Moteur16ajustementTimer1Ehhh:
  37               	.LFB13:
   4:moteur.cpp    **** 
   5:moteur.cpp    **** }
   6:moteur.cpp    **** 
   7:moteur.cpp    **** void Moteur::avancer(uint8_t direction) {
   8:moteur.cpp    **** 	//Calculer vitesse de chaque roue
   9:moteur.cpp    **** 	uint8_t vitesseA = VITESSE;
  10:moteur.cpp    **** 	uint8_t vitesseB = VITESSE;
  11:moteur.cpp    **** 	if (direction <= 90) {
  12:moteur.cpp    **** 		vitesseB = round(VITESSE * direction / 90);
  13:moteur.cpp    **** 	}
  14:moteur.cpp    **** 	else {
  15:moteur.cpp    **** 		vitesseA = round(VITESSE * (180 - direction) / 90);
  16:moteur.cpp    **** 	}
  17:moteur.cpp    **** 
  18:moteur.cpp    **** 	//Ajuster PWM
  19:moteur.cpp    **** 	ajustementTimer1(vitesseA, vitesseB, 0x00);
  20:moteur.cpp    **** }
GAS LISTING /var/folders/86/8ymzt0g934z5dpmztl89nd000000gn/T//cchcDLWH.s 			page 2


  21:moteur.cpp    **** 
  22:moteur.cpp    **** void Moteur::reculer(uint8_t direction) {
  23:moteur.cpp    **** 	//Calculer vitesse de chaque roue
  24:moteur.cpp    **** 	uint8_t vitesseA = VITESSE;
  25:moteur.cpp    **** 	uint8_t vitesseB = VITESSE;
  26:moteur.cpp    **** 	if (direction <= 90) {
  27:moteur.cpp    **** 		vitesseB = round(VITESSE * direction / 90);
  28:moteur.cpp    **** 	}
  29:moteur.cpp    **** 	else {
  30:moteur.cpp    **** 		vitesseA = round(VITESSE * (180 - direction) / 90);
  31:moteur.cpp    **** 	}
  32:moteur.cpp    **** 
  33:moteur.cpp    **** 	//Ajuster PWM
  34:moteur.cpp    **** 	ajustementTimer1(vitesseA, vitesseB, 0x03);
  35:moteur.cpp    **** }
  36:moteur.cpp    **** 
  37:moteur.cpp    **** void Moteur::tourner(uint8_t degree) {
  38:moteur.cpp    **** 	//Tourner
  39:moteur.cpp    **** 	if (degree > 0){
  40:moteur.cpp    **** 		ajustementTimer1(VITESSE_ROTATION,VITESSE_ROTATION,0x02); //Droite
  41:moteur.cpp    **** 	}
  42:moteur.cpp    **** 	else {
  43:moteur.cpp    **** 		ajustementTimer1(VITESSE_ROTATION,VITESSE_ROTATION,0x01); //Gauche
  44:moteur.cpp    **** 	}
  45:moteur.cpp    ****   	Utility::delay(degree * 10 + 100);
  46:moteur.cpp    **** 
  47:moteur.cpp    **** 	//Terminer tournant
  48:moteur.cpp    **** 	arreter();
  49:moteur.cpp    **** }
  50:moteur.cpp    **** 
  51:moteur.cpp    **** void Moteur::arreter() {
  52:moteur.cpp    **** 	ajustementTimer1(0,0,0x00);
  53:moteur.cpp    **** }
  54:moteur.cpp    **** 
  55:moteur.cpp    **** void Moteur::ajustementTimer1( uint8_t dureeA, uint8_t dureeB, uint8_t direction)
  56:moteur.cpp    **** {
  38               		.loc 1 56 0
  39               		.cfi_startproc
  40               	.LVL1:
  41               	/* prologue: function */
  42               	/* frame size = 0 */
  43               	/* stack size = 0 */
  44               	.L__stack_usage = 0
  57:moteur.cpp    ****   TCCR1A |= (1 << WGM10) | (1 << COM1A1)|(1 << COM1B1) ;
  45               		.loc 1 57 0
  46 0008 E0E8      		ldi r30,lo8(-128)
  47 000a F0E0      		ldi r31,0
  48 000c 8081      		ld r24,Z
  49               	.LVL2:
  50 000e 816A      		ori r24,lo8(-95)
  51 0010 8083      		st Z,r24
  58:moteur.cpp    ****   TCCR1B |= (1<< CS11) ;
  52               		.loc 1 58 0
  53 0012 E1E8      		ldi r30,lo8(-127)
  54 0014 F0E0      		ldi r31,0
  55 0016 8081      		ld r24,Z
  56 0018 8260      		ori r24,lo8(2)
GAS LISTING /var/folders/86/8ymzt0g934z5dpmztl89nd000000gn/T//cchcDLWH.s 			page 3


  57 001a 8083      		st Z,r24
  59:moteur.cpp    ****   OCR1A = dureeA ; OCR1B = dureeB;
  58               		.loc 1 59 0
  59 001c 70E0      		ldi r23,0
  60 001e 7093 8900 		sts 136+1,r23
  61 0022 6093 8800 		sts 136,r22
  62 0026 50E0      		ldi r21,0
  63 0028 5093 8B00 		sts 138+1,r21
  64 002c 4093 8A00 		sts 138,r20
  60:moteur.cpp    **** 
  61:moteur.cpp    ****   PORTD &= 0x3F; //Reinitialiser la direction
  65               		.loc 1 61 0
  66 0030 8BB1      		in r24,0xb
  67 0032 8F73      		andi r24,lo8(63)
  68 0034 8BB9      		out 0xb,r24
  62:moteur.cpp    ****   PORTD |= direction << 6; //Nouvelle direction
  69               		.loc 1 62 0
  70 0036 8BB1      		in r24,0xb
  71 0038 90E4      		ldi r25,lo8(64)
  72 003a 299F      		mul r18,r25
  73 003c 9001      		movw r18,r0
  74 003e 1124      		clr __zero_reg__
  75               	.LVL3:
  76 0040 822B      		or r24,r18
  77 0042 8BB9      		out 0xb,r24
  78 0044 0895      		ret
  79               		.cfi_endproc
  80               	.LFE13:
  81               		.size	_ZN6Moteur16ajustementTimer1Ehhh, .-_ZN6Moteur16ajustementTimer1Ehhh
  82               	.global	__floatsisf
  83               	.global	__fixunssfsi
  84               	.global	_ZN6Moteur7avancerEh
  85               		.type	_ZN6Moteur7avancerEh, @function
  86               	_ZN6Moteur7avancerEh:
  87               	.LFB9:
   7:moteur.cpp    **** void Moteur::avancer(uint8_t direction) {
  88               		.loc 1 7 0
  89               		.cfi_startproc
  90               	.LVL4:
  91 0046 1F93      		push r17
  92               	.LCFI0:
  93               		.cfi_def_cfa_offset 3
  94               		.cfi_offset 17, -2
  95 0048 CF93      		push r28
  96               	.LCFI1:
  97               		.cfi_def_cfa_offset 4
  98               		.cfi_offset 28, -3
  99 004a DF93      		push r29
 100               	.LCFI2:
 101               		.cfi_def_cfa_offset 5
 102               		.cfi_offset 29, -4
 103               	/* prologue: function */
 104               	/* frame size = 0 */
 105               	/* stack size = 3 */
 106               	.L__stack_usage = 3
 107 004c EC01      		movw r28,r24
 108               	.LBB3:
GAS LISTING /var/folders/86/8ymzt0g934z5dpmztl89nd000000gn/T//cchcDLWH.s 			page 4


   9:moteur.cpp    **** 	uint8_t vitesseA = VITESSE;
 109               		.loc 1 9 0
 110 004e 1881      		ld r17,Y
 111               	.LVL5:
  11:moteur.cpp    **** 	if (direction <= 90) {
 112               		.loc 1 11 0
 113 0050 6B35      		cpi r22,lo8(91)
 114 0052 00F4      		brsh .L4
  12:moteur.cpp    **** 		vitesseB = round(VITESSE * direction / 90);
 115               		.loc 1 12 0
 116 0054 169F      		mul r17,r22
 117 0056 C001      		movw r24,r0
 118 0058 1124      		clr __zero_reg__
 119               	.LVL6:
 120 005a 6AE5      		ldi r22,lo8(90)
 121 005c 70E0      		ldi r23,0
 122               	.LVL7:
 123 005e 0E94 0000 		call __divmodhi4
 124 0062 8827      		clr r24
 125 0064 77FD      		sbrc r23,7
 126 0066 8095      		com r24
 127 0068 982F      		mov r25,r24
 128 006a 0E94 0000 		call __floatsisf
 129               	.LVL8:
 130 006e 0E94 0000 		call round
 131               	.LVL9:
 132 0072 0E94 0000 		call __fixunssfsi
 133               	.LVL10:
 134 0076 862F      		mov r24,r22
 135               	.LVL11:
   9:moteur.cpp    **** 	uint8_t vitesseA = VITESSE;
 136               		.loc 1 9 0
 137 0078 612F      		mov r22,r17
 138               	.LVL12:
  12:moteur.cpp    **** 		vitesseB = round(VITESSE * direction / 90);
 139               		.loc 1 12 0
 140 007a 182F      		mov r17,r24
 141               	.LVL13:
 142 007c 00C0      		rjmp .L5
 143               	.LVL14:
 144               	.L4:
  15:moteur.cpp    **** 		vitesseA = round(VITESSE * (180 - direction) / 90);
 145               		.loc 1 15 0
 146 007e 24EB      		ldi r18,lo8(-76)
 147 0080 30E0      		ldi r19,0
 148 0082 261B      		sub r18,r22
 149 0084 3109      		sbc r19,__zero_reg__
 150 0086 129F      		mul r17,r18
 151 0088 C001      		movw r24,r0
 152 008a 139F      		mul r17,r19
 153 008c 900D      		add r25,r0
 154 008e 1124      		clr __zero_reg__
 155               	.LVL15:
 156 0090 6AE5      		ldi r22,lo8(90)
 157 0092 70E0      		ldi r23,0
 158               	.LVL16:
 159 0094 0E94 0000 		call __divmodhi4
GAS LISTING /var/folders/86/8ymzt0g934z5dpmztl89nd000000gn/T//cchcDLWH.s 			page 5


 160 0098 8827      		clr r24
 161 009a 77FD      		sbrc r23,7
 162 009c 8095      		com r24
 163 009e 982F      		mov r25,r24
 164 00a0 0E94 0000 		call __floatsisf
 165               	.LVL17:
 166 00a4 0E94 0000 		call round
 167               	.LVL18:
 168 00a8 0E94 0000 		call __fixunssfsi
 169               	.LVL19:
 170               	.L5:
  19:moteur.cpp    **** 	ajustementTimer1(vitesseA, vitesseB, 0x00);
 171               		.loc 1 19 0
 172 00ac 20E0      		ldi r18,0
 173 00ae 412F      		mov r20,r17
 174 00b0 CE01      		movw r24,r28
 175               	/* epilogue start */
 176               	.LBE3:
  20:moteur.cpp    **** }
 177               		.loc 1 20 0
 178 00b2 DF91      		pop r29
 179 00b4 CF91      		pop r28
 180               	.LVL20:
 181 00b6 1F91      		pop r17
 182               	.LVL21:
 183               	.LBB4:
  19:moteur.cpp    **** 	ajustementTimer1(vitesseA, vitesseB, 0x00);
 184               		.loc 1 19 0
 185 00b8 0C94 0000 		jmp _ZN6Moteur16ajustementTimer1Ehhh
 186               	.LVL22:
 187               	.LBE4:
 188               		.cfi_endproc
 189               	.LFE9:
 190               		.size	_ZN6Moteur7avancerEh, .-_ZN6Moteur7avancerEh
 191               	.global	_ZN6Moteur7reculerEh
 192               		.type	_ZN6Moteur7reculerEh, @function
 193               	_ZN6Moteur7reculerEh:
 194               	.LFB10:
  22:moteur.cpp    **** void Moteur::reculer(uint8_t direction) {
 195               		.loc 1 22 0
 196               		.cfi_startproc
 197               	.LVL23:
 198 00bc 1F93      		push r17
 199               	.LCFI3:
 200               		.cfi_def_cfa_offset 3
 201               		.cfi_offset 17, -2
 202 00be CF93      		push r28
 203               	.LCFI4:
 204               		.cfi_def_cfa_offset 4
 205               		.cfi_offset 28, -3
 206 00c0 DF93      		push r29
 207               	.LCFI5:
 208               		.cfi_def_cfa_offset 5
 209               		.cfi_offset 29, -4
 210               	/* prologue: function */
 211               	/* frame size = 0 */
 212               	/* stack size = 3 */
GAS LISTING /var/folders/86/8ymzt0g934z5dpmztl89nd000000gn/T//cchcDLWH.s 			page 6


 213               	.L__stack_usage = 3
 214 00c2 EC01      		movw r28,r24
 215               	.LBB5:
  24:moteur.cpp    **** 	uint8_t vitesseA = VITESSE;
 216               		.loc 1 24 0
 217 00c4 1881      		ld r17,Y
 218               	.LVL24:
  26:moteur.cpp    **** 	if (direction <= 90) {
 219               		.loc 1 26 0
 220 00c6 6B35      		cpi r22,lo8(91)
 221 00c8 00F4      		brsh .L8
  27:moteur.cpp    **** 		vitesseB = round(VITESSE * direction / 90);
 222               		.loc 1 27 0
 223 00ca 169F      		mul r17,r22
 224 00cc C001      		movw r24,r0
 225 00ce 1124      		clr __zero_reg__
 226               	.LVL25:
 227 00d0 6AE5      		ldi r22,lo8(90)
 228 00d2 70E0      		ldi r23,0
 229               	.LVL26:
 230 00d4 0E94 0000 		call __divmodhi4
 231 00d8 8827      		clr r24
 232 00da 77FD      		sbrc r23,7
 233 00dc 8095      		com r24
 234 00de 982F      		mov r25,r24
 235 00e0 0E94 0000 		call __floatsisf
 236               	.LVL27:
 237 00e4 0E94 0000 		call round
 238               	.LVL28:
 239 00e8 0E94 0000 		call __fixunssfsi
 240               	.LVL29:
 241 00ec 862F      		mov r24,r22
 242               	.LVL30:
  24:moteur.cpp    **** 	uint8_t vitesseA = VITESSE;
 243               		.loc 1 24 0
 244 00ee 612F      		mov r22,r17
 245               	.LVL31:
  27:moteur.cpp    **** 		vitesseB = round(VITESSE * direction / 90);
 246               		.loc 1 27 0
 247 00f0 182F      		mov r17,r24
 248               	.LVL32:
 249 00f2 00C0      		rjmp .L9
 250               	.LVL33:
 251               	.L8:
  30:moteur.cpp    **** 		vitesseA = round(VITESSE * (180 - direction) / 90);
 252               		.loc 1 30 0
 253 00f4 24EB      		ldi r18,lo8(-76)
 254 00f6 30E0      		ldi r19,0
 255 00f8 261B      		sub r18,r22
 256 00fa 3109      		sbc r19,__zero_reg__
 257 00fc 129F      		mul r17,r18
 258 00fe C001      		movw r24,r0
 259 0100 139F      		mul r17,r19
 260 0102 900D      		add r25,r0
 261 0104 1124      		clr __zero_reg__
 262               	.LVL34:
 263 0106 6AE5      		ldi r22,lo8(90)
GAS LISTING /var/folders/86/8ymzt0g934z5dpmztl89nd000000gn/T//cchcDLWH.s 			page 7


 264 0108 70E0      		ldi r23,0
 265               	.LVL35:
 266 010a 0E94 0000 		call __divmodhi4
 267 010e 8827      		clr r24
 268 0110 77FD      		sbrc r23,7
 269 0112 8095      		com r24
 270 0114 982F      		mov r25,r24
 271 0116 0E94 0000 		call __floatsisf
 272               	.LVL36:
 273 011a 0E94 0000 		call round
 274               	.LVL37:
 275 011e 0E94 0000 		call __fixunssfsi
 276               	.LVL38:
 277               	.L9:
  34:moteur.cpp    **** 	ajustementTimer1(vitesseA, vitesseB, 0x03);
 278               		.loc 1 34 0
 279 0122 23E0      		ldi r18,lo8(3)
 280 0124 412F      		mov r20,r17
 281 0126 CE01      		movw r24,r28
 282               	/* epilogue start */
 283               	.LBE5:
  35:moteur.cpp    **** }
 284               		.loc 1 35 0
 285 0128 DF91      		pop r29
 286 012a CF91      		pop r28
 287               	.LVL39:
 288 012c 1F91      		pop r17
 289               	.LVL40:
 290               	.LBB6:
  34:moteur.cpp    **** 	ajustementTimer1(vitesseA, vitesseB, 0x03);
 291               		.loc 1 34 0
 292 012e 0C94 0000 		jmp _ZN6Moteur16ajustementTimer1Ehhh
 293               	.LVL41:
 294               	.LBE6:
 295               		.cfi_endproc
 296               	.LFE10:
 297               		.size	_ZN6Moteur7reculerEh, .-_ZN6Moteur7reculerEh
 298               	.global	_ZN6Moteur7arreterEv
 299               		.type	_ZN6Moteur7arreterEv, @function
 300               	_ZN6Moteur7arreterEv:
 301               	.LFB12:
  51:moteur.cpp    **** void Moteur::arreter() {
 302               		.loc 1 51 0
 303               		.cfi_startproc
 304               	.LVL42:
 305               	/* prologue: function */
 306               	/* frame size = 0 */
 307               	/* stack size = 0 */
 308               	.L__stack_usage = 0
  52:moteur.cpp    **** 	ajustementTimer1(0,0,0x00);
 309               		.loc 1 52 0
 310 0132 20E0      		ldi r18,0
 311 0134 40E0      		ldi r20,0
 312 0136 60E0      		ldi r22,0
 313 0138 0C94 0000 		jmp _ZN6Moteur16ajustementTimer1Ehhh
 314               	.LVL43:
 315               		.cfi_endproc
GAS LISTING /var/folders/86/8ymzt0g934z5dpmztl89nd000000gn/T//cchcDLWH.s 			page 8


 316               	.LFE12:
 317               		.size	_ZN6Moteur7arreterEv, .-_ZN6Moteur7arreterEv
 318               	.global	_ZN6Moteur7tournerEh
 319               		.type	_ZN6Moteur7tournerEh, @function
 320               	_ZN6Moteur7tournerEh:
 321               	.LFB11:
  37:moteur.cpp    **** void Moteur::tourner(uint8_t degree) {
 322               		.loc 1 37 0
 323               		.cfi_startproc
 324               	.LVL44:
 325 013c 1F93      		push r17
 326               	.LCFI6:
 327               		.cfi_def_cfa_offset 3
 328               		.cfi_offset 17, -2
 329 013e CF93      		push r28
 330               	.LCFI7:
 331               		.cfi_def_cfa_offset 4
 332               		.cfi_offset 28, -3
 333 0140 DF93      		push r29
 334               	.LCFI8:
 335               		.cfi_def_cfa_offset 5
 336               		.cfi_offset 29, -4
 337               	/* prologue: function */
 338               	/* frame size = 0 */
 339               	/* stack size = 3 */
 340               	.L__stack_usage = 3
 341 0142 EC01      		movw r28,r24
 342 0144 162F      		mov r17,r22
 343 0146 6981      		ldd r22,Y+1
 344               	.LVL45:
  39:moteur.cpp    **** 	if (degree > 0){
 345               		.loc 1 39 0
 346 0148 1123      		tst r17
 347 014a 01F0      		breq .L12
  40:moteur.cpp    **** 		ajustementTimer1(VITESSE_ROTATION,VITESSE_ROTATION,0x02); //Droite
 348               		.loc 1 40 0
 349 014c 22E0      		ldi r18,lo8(2)
 350 014e 00C0      		rjmp .L14
 351               	.L12:
  43:moteur.cpp    **** 		ajustementTimer1(VITESSE_ROTATION,VITESSE_ROTATION,0x01); //Gauche
 352               		.loc 1 43 0
 353 0150 21E0      		ldi r18,lo8(1)
 354               	.L14:
 355 0152 462F      		mov r20,r22
 356 0154 CE01      		movw r24,r28
 357               	.LVL46:
 358 0156 0E94 0000 		call _ZN6Moteur16ajustementTimer1Ehhh
 359               	.LVL47:
  45:moteur.cpp    ****   	Utility::delay(degree * 10 + 100);
 360               		.loc 1 45 0
 361 015a 2AE0      		ldi r18,lo8(10)
 362 015c 129F      		mul r17,r18
 363 015e C001      		movw r24,r0
 364 0160 1124      		clr __zero_reg__
 365 0162 8C59      		subi r24,-100
 366 0164 9F4F      		sbci r25,-1
 367 0166 0E94 0000 		call _ZN7Utility5delayEj
GAS LISTING /var/folders/86/8ymzt0g934z5dpmztl89nd000000gn/T//cchcDLWH.s 			page 9


 368               	.LVL48:
  48:moteur.cpp    **** 	arreter();
 369               		.loc 1 48 0
 370 016a CE01      		movw r24,r28
 371               	/* epilogue start */
  49:moteur.cpp    **** }
 372               		.loc 1 49 0
 373 016c DF91      		pop r29
 374 016e CF91      		pop r28
 375               	.LVL49:
 376 0170 1F91      		pop r17
 377               	.LVL50:
  48:moteur.cpp    **** 	arreter();
 378               		.loc 1 48 0
 379 0172 0C94 0000 		jmp _ZN6Moteur7arreterEv
 380               	.LVL51:
 381               		.cfi_endproc
 382               	.LFE11:
 383               		.size	_ZN6Moteur7tournerEh, .-_ZN6Moteur7tournerEh
 384               	.Letext0:
 385               		.file 2 "/usr/local/CrossPack-AVR-20131216/avr/include/stdint.h"
 386               		.file 3 "utility.h"
 387               		.file 4 "moteur.h"
 388               		.file 5 "/usr/local/CrossPack-AVR-20131216/avr/include/math.h"
 389               		.section	.debug_info,"",@progbits
 390               	.Ldebug_info0:
 391 0000 4605 0000 		.long	0x546
 392 0004 0200      		.word	0x2
 393 0006 0000 0000 		.long	.Ldebug_abbrev0
 394 000a 04        		.byte	0x4
 395 000b 01        		.uleb128 0x1
 396 000c 0000 0000 		.long	.LASF49
 397 0010 04        		.byte	0x4
 398 0011 0000 0000 		.long	.LASF50
 399 0015 0000 0000 		.long	.LASF51
 400 0019 0000 0000 		.long	.Ltext0
 401 001d 0000 0000 		.long	.Letext0
 402 0021 0000 0000 		.long	.Ldebug_line0
 403 0025 02        		.uleb128 0x2
 404 0026 01        		.byte	0x1
 405 0027 06        		.byte	0x6
 406 0028 0000 0000 		.long	.LASF0
 407 002c 03        		.uleb128 0x3
 408 002d 0000 0000 		.long	.LASF2
 409 0031 02        		.byte	0x2
 410 0032 7A        		.byte	0x7a
 411 0033 3700 0000 		.long	0x37
 412 0037 02        		.uleb128 0x2
 413 0038 01        		.byte	0x1
 414 0039 08        		.byte	0x8
 415 003a 0000 0000 		.long	.LASF1
 416 003e 04        		.uleb128 0x4
 417 003f 02        		.byte	0x2
 418 0040 05        		.byte	0x5
 419 0041 696E 7400 		.string	"int"
 420 0045 03        		.uleb128 0x3
 421 0046 0000 0000 		.long	.LASF3
GAS LISTING /var/folders/86/8ymzt0g934z5dpmztl89nd000000gn/T//cchcDLWH.s 			page 10


 422 004a 02        		.byte	0x2
 423 004b 7C        		.byte	0x7c
 424 004c 5000 0000 		.long	0x50
 425 0050 02        		.uleb128 0x2
 426 0051 02        		.byte	0x2
 427 0052 07        		.byte	0x7
 428 0053 0000 0000 		.long	.LASF4
 429 0057 02        		.uleb128 0x2
 430 0058 04        		.byte	0x4
 431 0059 05        		.byte	0x5
 432 005a 0000 0000 		.long	.LASF5
 433 005e 02        		.uleb128 0x2
 434 005f 04        		.byte	0x4
 435 0060 07        		.byte	0x7
 436 0061 0000 0000 		.long	.LASF6
 437 0065 02        		.uleb128 0x2
 438 0066 08        		.byte	0x8
 439 0067 05        		.byte	0x5
 440 0068 0000 0000 		.long	.LASF7
 441 006c 02        		.uleb128 0x2
 442 006d 08        		.byte	0x8
 443 006e 07        		.byte	0x7
 444 006f 0000 0000 		.long	.LASF8
 445 0073 05        		.uleb128 0x5
 446 0074 0000 0000 		.long	.LASF24
 447 0078 01        		.byte	0x1
 448 0079 03        		.byte	0x3
 449 007a 0E        		.byte	0xe
 450 007b 6801 0000 		.long	0x168
 451 007f 06        		.uleb128 0x6
 452 0080 01        		.byte	0x1
 453 0081 0000 0000 		.long	.LASF13
 454 0085 03        		.byte	0x3
 455 0086 13        		.byte	0x13
 456 0087 0000 0000 		.long	.LASF15
 457 008b 01        		.byte	0x1
 458 008c 9400 0000 		.long	0x94
 459 0090 9B00 0000 		.long	0x9b
 460 0094 07        		.uleb128 0x7
 461 0095 6801 0000 		.long	0x168
 462 0099 01        		.byte	0x1
 463 009a 00        		.byte	0
 464 009b 08        		.uleb128 0x8
 465 009c 01        		.byte	0x1
 466 009d 0000 0000 		.long	.LASF9
 467 00a1 03        		.byte	0x3
 468 00a2 14        		.byte	0x14
 469 00a3 0000 0000 		.long	.LASF11
 470 00a7 6E01 0000 		.long	0x16e
 471 00ab 01        		.byte	0x1
 472 00ac B400 0000 		.long	0xb4
 473 00b0 BB00 0000 		.long	0xbb
 474 00b4 07        		.uleb128 0x7
 475 00b5 6801 0000 		.long	0x168
 476 00b9 01        		.byte	0x1
 477 00ba 00        		.byte	0
 478 00bb 08        		.uleb128 0x8
GAS LISTING /var/folders/86/8ymzt0g934z5dpmztl89nd000000gn/T//cchcDLWH.s 			page 11


 479 00bc 01        		.byte	0x1
 480 00bd 0000 0000 		.long	.LASF10
 481 00c1 03        		.byte	0x3
 482 00c2 15        		.byte	0x15
 483 00c3 0000 0000 		.long	.LASF12
 484 00c7 6E01 0000 		.long	0x16e
 485 00cb 01        		.byte	0x1
 486 00cc D400 0000 		.long	0xd4
 487 00d0 DB00 0000 		.long	0xdb
 488 00d4 07        		.uleb128 0x7
 489 00d5 6801 0000 		.long	0x168
 490 00d9 01        		.byte	0x1
 491 00da 00        		.byte	0
 492 00db 06        		.uleb128 0x6
 493 00dc 01        		.byte	0x1
 494 00dd 0000 0000 		.long	.LASF14
 495 00e1 03        		.byte	0x3
 496 00e2 16        		.byte	0x16
 497 00e3 0000 0000 		.long	.LASF16
 498 00e7 01        		.byte	0x1
 499 00e8 F000 0000 		.long	0xf0
 500 00ec F700 0000 		.long	0xf7
 501 00f0 07        		.uleb128 0x7
 502 00f1 6801 0000 		.long	0x168
 503 00f5 01        		.byte	0x1
 504 00f6 00        		.byte	0
 505 00f7 06        		.uleb128 0x6
 506 00f8 01        		.byte	0x1
 507 00f9 0000 0000 		.long	.LASF17
 508 00fd 03        		.byte	0x3
 509 00fe 17        		.byte	0x17
 510 00ff 0000 0000 		.long	.LASF18
 511 0103 01        		.byte	0x1
 512 0104 0C01 0000 		.long	0x10c
 513 0108 1801 0000 		.long	0x118
 514 010c 07        		.uleb128 0x7
 515 010d 6801 0000 		.long	0x168
 516 0111 01        		.byte	0x1
 517 0112 09        		.uleb128 0x9
 518 0113 2C00 0000 		.long	0x2c
 519 0117 00        		.byte	0
 520 0118 06        		.uleb128 0x6
 521 0119 01        		.byte	0x1
 522 011a 0000 0000 		.long	.LASF19
 523 011e 03        		.byte	0x3
 524 011f 18        		.byte	0x18
 525 0120 0000 0000 		.long	.LASF20
 526 0124 01        		.byte	0x1
 527 0125 2D01 0000 		.long	0x12d
 528 0129 3401 0000 		.long	0x134
 529 012d 07        		.uleb128 0x7
 530 012e 6801 0000 		.long	0x168
 531 0132 01        		.byte	0x1
 532 0133 00        		.byte	0
 533 0134 08        		.uleb128 0x8
 534 0135 01        		.byte	0x1
 535 0136 0000 0000 		.long	.LASF21
GAS LISTING /var/folders/86/8ymzt0g934z5dpmztl89nd000000gn/T//cchcDLWH.s 			page 12


 536 013a 03        		.byte	0x3
 537 013b 19        		.byte	0x19
 538 013c 0000 0000 		.long	.LASF22
 539 0140 3700 0000 		.long	0x37
 540 0144 01        		.byte	0x1
 541 0145 4D01 0000 		.long	0x14d
 542 0149 5401 0000 		.long	0x154
 543 014d 07        		.uleb128 0x7
 544 014e 6801 0000 		.long	0x168
 545 0152 01        		.byte	0x1
 546 0153 00        		.byte	0
 547 0154 0A        		.uleb128 0xa
 548 0155 01        		.byte	0x1
 549 0156 0000 0000 		.long	.LASF52
 550 015a 03        		.byte	0x3
 551 015b 1B        		.byte	0x1b
 552 015c 0000 0000 		.long	.LASF53
 553 0160 01        		.byte	0x1
 554 0161 09        		.uleb128 0x9
 555 0162 4500 0000 		.long	0x45
 556 0166 00        		.byte	0
 557 0167 00        		.byte	0
 558 0168 0B        		.uleb128 0xb
 559 0169 02        		.byte	0x2
 560 016a 7300 0000 		.long	0x73
 561 016e 02        		.uleb128 0x2
 562 016f 01        		.byte	0x1
 563 0170 02        		.byte	0x2
 564 0171 0000 0000 		.long	.LASF23
 565 0175 05        		.uleb128 0x5
 566 0176 0000 0000 		.long	.LASF25
 567 017a 02        		.byte	0x2
 568 017b 04        		.byte	0x4
 569 017c 07        		.byte	0x7
 570 017d 6902 0000 		.long	0x269
 571 0181 0C        		.uleb128 0xc
 572 0182 0000 0000 		.long	.LASF26
 573 0186 04        		.byte	0x4
 574 0187 18        		.byte	0x18
 575 0188 6902 0000 		.long	0x269
 576 018c 02        		.byte	0x2
 577 018d 23        		.byte	0x23
 578 018e 00        		.uleb128 0
 579 018f 03        		.byte	0x3
 580 0190 0C        		.uleb128 0xc
 581 0191 0000 0000 		.long	.LASF27
 582 0195 04        		.byte	0x4
 583 0196 19        		.byte	0x19
 584 0197 6902 0000 		.long	0x269
 585 019b 02        		.byte	0x2
 586 019c 23        		.byte	0x23
 587 019d 01        		.uleb128 0x1
 588 019e 03        		.byte	0x3
 589 019f 0D        		.uleb128 0xd
 590 01a0 01        		.byte	0x1
 591 01a1 0000 0000 		.long	.LASF25
 592 01a5 04        		.byte	0x4
GAS LISTING /var/folders/86/8ymzt0g934z5dpmztl89nd000000gn/T//cchcDLWH.s 			page 13


 593 01a6 09        		.byte	0x9
 594 01a7 01        		.byte	0x1
 595 01a8 B001 0000 		.long	0x1b0
 596 01ac C101 0000 		.long	0x1c1
 597 01b0 07        		.uleb128 0x7
 598 01b1 6E02 0000 		.long	0x26e
 599 01b5 01        		.byte	0x1
 600 01b6 09        		.uleb128 0x9
 601 01b7 2C00 0000 		.long	0x2c
 602 01bb 09        		.uleb128 0x9
 603 01bc 2C00 0000 		.long	0x2c
 604 01c0 00        		.byte	0
 605 01c1 06        		.uleb128 0x6
 606 01c2 01        		.byte	0x1
 607 01c3 0000 0000 		.long	.LASF28
 608 01c7 04        		.byte	0x4
 609 01c8 0C        		.byte	0xc
 610 01c9 0000 0000 		.long	.LASF29
 611 01cd 01        		.byte	0x1
 612 01ce D601 0000 		.long	0x1d6
 613 01d2 E201 0000 		.long	0x1e2
 614 01d6 07        		.uleb128 0x7
 615 01d7 6E02 0000 		.long	0x26e
 616 01db 01        		.byte	0x1
 617 01dc 09        		.uleb128 0x9
 618 01dd 2C00 0000 		.long	0x2c
 619 01e1 00        		.byte	0
 620 01e2 06        		.uleb128 0x6
 621 01e3 01        		.byte	0x1
 622 01e4 0000 0000 		.long	.LASF30
 623 01e8 04        		.byte	0x4
 624 01e9 0E        		.byte	0xe
 625 01ea 0000 0000 		.long	.LASF31
 626 01ee 01        		.byte	0x1
 627 01ef F701 0000 		.long	0x1f7
 628 01f3 0302 0000 		.long	0x203
 629 01f7 07        		.uleb128 0x7
 630 01f8 6E02 0000 		.long	0x26e
 631 01fc 01        		.byte	0x1
 632 01fd 09        		.uleb128 0x9
 633 01fe 2C00 0000 		.long	0x2c
 634 0202 00        		.byte	0
 635 0203 06        		.uleb128 0x6
 636 0204 01        		.byte	0x1
 637 0205 0000 0000 		.long	.LASF32
 638 0209 04        		.byte	0x4
 639 020a 10        		.byte	0x10
 640 020b 0000 0000 		.long	.LASF33
 641 020f 01        		.byte	0x1
 642 0210 1802 0000 		.long	0x218
 643 0214 2402 0000 		.long	0x224
 644 0218 07        		.uleb128 0x7
 645 0219 6E02 0000 		.long	0x26e
 646 021d 01        		.byte	0x1
 647 021e 09        		.uleb128 0x9
 648 021f 2C00 0000 		.long	0x2c
 649 0223 00        		.byte	0
GAS LISTING /var/folders/86/8ymzt0g934z5dpmztl89nd000000gn/T//cchcDLWH.s 			page 14


 650 0224 06        		.uleb128 0x6
 651 0225 01        		.byte	0x1
 652 0226 0000 0000 		.long	.LASF34
 653 022a 04        		.byte	0x4
 654 022b 12        		.byte	0x12
 655 022c 0000 0000 		.long	.LASF35
 656 0230 01        		.byte	0x1
 657 0231 3902 0000 		.long	0x239
 658 0235 4002 0000 		.long	0x240
 659 0239 07        		.uleb128 0x7
 660 023a 6E02 0000 		.long	0x26e
 661 023e 01        		.byte	0x1
 662 023f 00        		.byte	0
 663 0240 0E        		.uleb128 0xe
 664 0241 01        		.byte	0x1
 665 0242 0000 0000 		.long	.LASF36
 666 0246 04        		.byte	0x4
 667 0247 16        		.byte	0x16
 668 0248 0000 0000 		.long	.LASF37
 669 024c 03        		.byte	0x3
 670 024d 01        		.byte	0x1
 671 024e 5202 0000 		.long	0x252
 672 0252 07        		.uleb128 0x7
 673 0253 6E02 0000 		.long	0x26e
 674 0257 01        		.byte	0x1
 675 0258 09        		.uleb128 0x9
 676 0259 2C00 0000 		.long	0x2c
 677 025d 09        		.uleb128 0x9
 678 025e 2C00 0000 		.long	0x2c
 679 0262 09        		.uleb128 0x9
 680 0263 2C00 0000 		.long	0x2c
 681 0267 00        		.byte	0
 682 0268 00        		.byte	0
 683 0269 0F        		.uleb128 0xf
 684 026a 2C00 0000 		.long	0x2c
 685 026e 0B        		.uleb128 0xb
 686 026f 02        		.byte	0x2
 687 0270 7501 0000 		.long	0x175
 688 0274 10        		.uleb128 0x10
 689 0275 9F01 0000 		.long	0x19f
 690 0279 01        		.byte	0x1
 691 027a 03        		.byte	0x3
 692 027b 00        		.byte	0
 693 027c 8402 0000 		.long	0x284
 694 0280 A502 0000 		.long	0x2a5
 695 0284 11        		.uleb128 0x11
 696 0285 0000 0000 		.long	.LASF40
 697 0289 A502 0000 		.long	0x2a5
 698 028d 01        		.byte	0x1
 699 028e 12        		.uleb128 0x12
 700 028f 0000 0000 		.long	.LASF38
 701 0293 01        		.byte	0x1
 702 0294 03        		.byte	0x3
 703 0295 2C00 0000 		.long	0x2c
 704 0299 12        		.uleb128 0x12
 705 029a 0000 0000 		.long	.LASF39
 706 029e 01        		.byte	0x1
GAS LISTING /var/folders/86/8ymzt0g934z5dpmztl89nd000000gn/T//cchcDLWH.s 			page 15


 707 029f 03        		.byte	0x3
 708 02a0 2C00 0000 		.long	0x2c
 709 02a4 00        		.byte	0
 710 02a5 0F        		.uleb128 0xf
 711 02a6 6E02 0000 		.long	0x26e
 712 02aa 13        		.uleb128 0x13
 713 02ab 7402 0000 		.long	0x274
 714 02af 0000 0000 		.long	.LASF54
 715 02b3 0000 0000 		.long	.LFB7
 716 02b7 0000 0000 		.long	.LFE7
 717 02bb 03        		.byte	0x3
 718 02bc 92        		.byte	0x92
 719 02bd 20        		.uleb128 0x20
 720 02be 02        		.sleb128 2
 721 02bf C802 0000 		.long	0x2c8
 722 02c3 01        		.byte	0x1
 723 02c4 E302 0000 		.long	0x2e3
 724 02c8 14        		.uleb128 0x14
 725 02c9 8402 0000 		.long	0x284
 726 02cd 06        		.byte	0x6
 727 02ce 68        		.byte	0x68
 728 02cf 93        		.byte	0x93
 729 02d0 01        		.uleb128 0x1
 730 02d1 69        		.byte	0x69
 731 02d2 93        		.byte	0x93
 732 02d3 01        		.uleb128 0x1
 733 02d4 14        		.uleb128 0x14
 734 02d5 8E02 0000 		.long	0x28e
 735 02d9 01        		.byte	0x1
 736 02da 66        		.byte	0x66
 737 02db 14        		.uleb128 0x14
 738 02dc 9902 0000 		.long	0x299
 739 02e0 01        		.byte	0x1
 740 02e1 64        		.byte	0x64
 741 02e2 00        		.byte	0
 742 02e3 15        		.uleb128 0x15
 743 02e4 4002 0000 		.long	0x240
 744 02e8 01        		.byte	0x1
 745 02e9 37        		.byte	0x37
 746 02ea 0000 0000 		.long	.LFB13
 747 02ee 0000 0000 		.long	.LFE13
 748 02f2 03        		.byte	0x3
 749 02f3 92        		.byte	0x92
 750 02f4 20        		.uleb128 0x20
 751 02f5 02        		.sleb128 2
 752 02f6 FF02 0000 		.long	0x2ff
 753 02fa 01        		.byte	0x1
 754 02fb 3703 0000 		.long	0x337
 755 02ff 16        		.uleb128 0x16
 756 0300 0000 0000 		.long	.LASF40
 757 0304 A502 0000 		.long	0x2a5
 758 0308 01        		.byte	0x1
 759 0309 0000 0000 		.long	.LLST0
 760 030d 17        		.uleb128 0x17
 761 030e 0000 0000 		.long	.LASF41
 762 0312 01        		.byte	0x1
 763 0313 37        		.byte	0x37
GAS LISTING /var/folders/86/8ymzt0g934z5dpmztl89nd000000gn/T//cchcDLWH.s 			page 16


 764 0314 2C00 0000 		.long	0x2c
 765 0318 01        		.byte	0x1
 766 0319 66        		.byte	0x66
 767 031a 17        		.uleb128 0x17
 768 031b 0000 0000 		.long	.LASF42
 769 031f 01        		.byte	0x1
 770 0320 37        		.byte	0x37
 771 0321 2C00 0000 		.long	0x2c
 772 0325 01        		.byte	0x1
 773 0326 64        		.byte	0x64
 774 0327 18        		.uleb128 0x18
 775 0328 0000 0000 		.long	.LASF43
 776 032c 01        		.byte	0x1
 777 032d 37        		.byte	0x37
 778 032e 2C00 0000 		.long	0x2c
 779 0332 0000 0000 		.long	.LLST1
 780 0336 00        		.byte	0
 781 0337 19        		.uleb128 0x19
 782 0338 C101 0000 		.long	0x1c1
 783 033c 01        		.byte	0x1
 784 033d 07        		.byte	0x7
 785 033e 0000 0000 		.long	.LFB9
 786 0342 0000 0000 		.long	.LFE9
 787 0346 0000 0000 		.long	.LLST2
 788 034a 5303 0000 		.long	0x353
 789 034e 01        		.byte	0x1
 790 034f C303 0000 		.long	0x3c3
 791 0353 16        		.uleb128 0x16
 792 0354 0000 0000 		.long	.LASF40
 793 0358 A502 0000 		.long	0x2a5
 794 035c 01        		.byte	0x1
 795 035d 0000 0000 		.long	.LLST3
 796 0361 18        		.uleb128 0x18
 797 0362 0000 0000 		.long	.LASF43
 798 0366 01        		.byte	0x1
 799 0367 07        		.byte	0x7
 800 0368 2C00 0000 		.long	0x2c
 801 036c 0000 0000 		.long	.LLST4
 802 0370 1A        		.uleb128 0x1a
 803 0371 0000 0000 		.long	.Ldebug_ranges0+0
 804 0375 1B        		.uleb128 0x1b
 805 0376 0000 0000 		.long	.LASF44
 806 037a 01        		.byte	0x1
 807 037b 09        		.byte	0x9
 808 037c 2C00 0000 		.long	0x2c
 809 0380 0000 0000 		.long	.LLST5
 810 0384 1B        		.uleb128 0x1b
 811 0385 0000 0000 		.long	.LASF45
 812 0389 01        		.byte	0x1
 813 038a 0A        		.byte	0xa
 814 038b 2C00 0000 		.long	0x2c
 815 038f 0000 0000 		.long	.LLST6
 816 0393 1C        		.uleb128 0x1c
 817 0394 0000 0000 		.long	.LVL9
 818 0398 2A05 0000 		.long	0x52a
 819 039c 1C        		.uleb128 0x1c
 820 039d 0000 0000 		.long	.LVL18
GAS LISTING /var/folders/86/8ymzt0g934z5dpmztl89nd000000gn/T//cchcDLWH.s 			page 17


 821 03a1 2A05 0000 		.long	0x52a
 822 03a5 1D        		.uleb128 0x1d
 823 03a6 0000 0000 		.long	.LVL22
 824 03aa 01        		.byte	0x1
 825 03ab E302 0000 		.long	0x2e3
 826 03af 1E        		.uleb128 0x1e
 827 03b0 06        		.byte	0x6
 828 03b1 68        		.byte	0x68
 829 03b2 93        		.byte	0x93
 830 03b3 01        		.uleb128 0x1
 831 03b4 69        		.byte	0x69
 832 03b5 93        		.byte	0x93
 833 03b6 01        		.uleb128 0x1
 834 03b7 03        		.byte	0x3
 835 03b8 F3        		.byte	0xf3
 836 03b9 01        		.uleb128 0x1
 837 03ba 68        		.byte	0x68
 838 03bb 1E        		.uleb128 0x1e
 839 03bc 01        		.byte	0x1
 840 03bd 62        		.byte	0x62
 841 03be 01        		.byte	0x1
 842 03bf 30        		.byte	0x30
 843 03c0 00        		.byte	0
 844 03c1 00        		.byte	0
 845 03c2 00        		.byte	0
 846 03c3 19        		.uleb128 0x19
 847 03c4 E201 0000 		.long	0x1e2
 848 03c8 01        		.byte	0x1
 849 03c9 16        		.byte	0x16
 850 03ca 0000 0000 		.long	.LFB10
 851 03ce 0000 0000 		.long	.LFE10
 852 03d2 0000 0000 		.long	.LLST7
 853 03d6 DF03 0000 		.long	0x3df
 854 03da 01        		.byte	0x1
 855 03db 4F04 0000 		.long	0x44f
 856 03df 16        		.uleb128 0x16
 857 03e0 0000 0000 		.long	.LASF40
 858 03e4 A502 0000 		.long	0x2a5
 859 03e8 01        		.byte	0x1
 860 03e9 0000 0000 		.long	.LLST8
 861 03ed 18        		.uleb128 0x18
 862 03ee 0000 0000 		.long	.LASF43
 863 03f2 01        		.byte	0x1
 864 03f3 16        		.byte	0x16
 865 03f4 2C00 0000 		.long	0x2c
 866 03f8 0000 0000 		.long	.LLST9
 867 03fc 1A        		.uleb128 0x1a
 868 03fd 0000 0000 		.long	.Ldebug_ranges0+0x18
 869 0401 1B        		.uleb128 0x1b
 870 0402 0000 0000 		.long	.LASF44
 871 0406 01        		.byte	0x1
 872 0407 18        		.byte	0x18
 873 0408 2C00 0000 		.long	0x2c
 874 040c 0000 0000 		.long	.LLST10
 875 0410 1B        		.uleb128 0x1b
 876 0411 0000 0000 		.long	.LASF45
 877 0415 01        		.byte	0x1
GAS LISTING /var/folders/86/8ymzt0g934z5dpmztl89nd000000gn/T//cchcDLWH.s 			page 18


 878 0416 19        		.byte	0x19
 879 0417 2C00 0000 		.long	0x2c
 880 041b 0000 0000 		.long	.LLST11
 881 041f 1C        		.uleb128 0x1c
 882 0420 0000 0000 		.long	.LVL28
 883 0424 2A05 0000 		.long	0x52a
 884 0428 1C        		.uleb128 0x1c
 885 0429 0000 0000 		.long	.LVL37
 886 042d 2A05 0000 		.long	0x52a
 887 0431 1D        		.uleb128 0x1d
 888 0432 0000 0000 		.long	.LVL41
 889 0436 01        		.byte	0x1
 890 0437 E302 0000 		.long	0x2e3
 891 043b 1E        		.uleb128 0x1e
 892 043c 06        		.byte	0x6
 893 043d 68        		.byte	0x68
 894 043e 93        		.byte	0x93
 895 043f 01        		.uleb128 0x1
 896 0440 69        		.byte	0x69
 897 0441 93        		.byte	0x93
 898 0442 01        		.uleb128 0x1
 899 0443 03        		.byte	0x3
 900 0444 F3        		.byte	0xf3
 901 0445 01        		.uleb128 0x1
 902 0446 68        		.byte	0x68
 903 0447 1E        		.uleb128 0x1e
 904 0448 01        		.byte	0x1
 905 0449 62        		.byte	0x62
 906 044a 01        		.byte	0x1
 907 044b 33        		.byte	0x33
 908 044c 00        		.byte	0
 909 044d 00        		.byte	0
 910 044e 00        		.byte	0
 911 044f 15        		.uleb128 0x15
 912 0450 2402 0000 		.long	0x224
 913 0454 01        		.byte	0x1
 914 0455 33        		.byte	0x33
 915 0456 0000 0000 		.long	.LFB12
 916 045a 0000 0000 		.long	.LFE12
 917 045e 03        		.byte	0x3
 918 045f 92        		.byte	0x92
 919 0460 20        		.uleb128 0x20
 920 0461 02        		.sleb128 2
 921 0462 6B04 0000 		.long	0x46b
 922 0466 01        		.byte	0x1
 923 0467 A004 0000 		.long	0x4a0
 924 046b 16        		.uleb128 0x16
 925 046c 0000 0000 		.long	.LASF40
 926 0470 A502 0000 		.long	0x2a5
 927 0474 01        		.byte	0x1
 928 0475 0000 0000 		.long	.LLST12
 929 0479 1D        		.uleb128 0x1d
 930 047a 0000 0000 		.long	.LVL43
 931 047e 01        		.byte	0x1
 932 047f E302 0000 		.long	0x2e3
 933 0483 1E        		.uleb128 0x1e
 934 0484 06        		.byte	0x6
GAS LISTING /var/folders/86/8ymzt0g934z5dpmztl89nd000000gn/T//cchcDLWH.s 			page 19


 935 0485 68        		.byte	0x68
 936 0486 93        		.byte	0x93
 937 0487 01        		.uleb128 0x1
 938 0488 69        		.byte	0x69
 939 0489 93        		.byte	0x93
 940 048a 01        		.uleb128 0x1
 941 048b 03        		.byte	0x3
 942 048c F3        		.byte	0xf3
 943 048d 01        		.uleb128 0x1
 944 048e 68        		.byte	0x68
 945 048f 1E        		.uleb128 0x1e
 946 0490 01        		.byte	0x1
 947 0491 66        		.byte	0x66
 948 0492 01        		.byte	0x1
 949 0493 30        		.byte	0x30
 950 0494 1E        		.uleb128 0x1e
 951 0495 01        		.byte	0x1
 952 0496 64        		.byte	0x64
 953 0497 01        		.byte	0x1
 954 0498 30        		.byte	0x30
 955 0499 1E        		.uleb128 0x1e
 956 049a 01        		.byte	0x1
 957 049b 62        		.byte	0x62
 958 049c 01        		.byte	0x1
 959 049d 30        		.byte	0x30
 960 049e 00        		.byte	0
 961 049f 00        		.byte	0
 962 04a0 1F        		.uleb128 0x1f
 963 04a1 0302 0000 		.long	0x203
 964 04a5 01        		.byte	0x1
 965 04a6 25        		.byte	0x25
 966 04a7 0000 0000 		.long	.LFB11
 967 04ab 0000 0000 		.long	.LFE11
 968 04af 0000 0000 		.long	.LLST13
 969 04b3 BC04 0000 		.long	0x4bc
 970 04b7 01        		.byte	0x1
 971 04b8 2A05 0000 		.long	0x52a
 972 04bc 16        		.uleb128 0x16
 973 04bd 0000 0000 		.long	.LASF40
 974 04c1 A502 0000 		.long	0x2a5
 975 04c5 01        		.byte	0x1
 976 04c6 0000 0000 		.long	.LLST14
 977 04ca 18        		.uleb128 0x18
 978 04cb 0000 0000 		.long	.LASF46
 979 04cf 01        		.byte	0x1
 980 04d0 25        		.byte	0x25
 981 04d1 2C00 0000 		.long	0x2c
 982 04d5 0000 0000 		.long	.LLST15
 983 04d9 20        		.uleb128 0x20
 984 04da 0000 0000 		.long	.LVL47
 985 04de E302 0000 		.long	0x2e3
 986 04e2 F204 0000 		.long	0x4f2
 987 04e6 1E        		.uleb128 0x1e
 988 04e7 06        		.byte	0x6
 989 04e8 68        		.byte	0x68
 990 04e9 93        		.byte	0x93
 991 04ea 01        		.uleb128 0x1
GAS LISTING /var/folders/86/8ymzt0g934z5dpmztl89nd000000gn/T//cchcDLWH.s 			page 20


 992 04eb 69        		.byte	0x69
 993 04ec 93        		.byte	0x93
 994 04ed 01        		.uleb128 0x1
 995 04ee 02        		.byte	0x2
 996 04ef 8C        		.byte	0x8c
 997 04f0 00        		.sleb128 0
 998 04f1 00        		.byte	0
 999 04f2 20        		.uleb128 0x20
 1000 04f3 0000 0000 		.long	.LVL48
 1001 04f7 5401 0000 		.long	0x154
 1002 04fb 1205 0000 		.long	0x512
 1003 04ff 1E        		.uleb128 0x1e
 1004 0500 06        		.byte	0x6
 1005 0501 68        		.byte	0x68
 1006 0502 93        		.byte	0x93
 1007 0503 01        		.uleb128 0x1
 1008 0504 69        		.byte	0x69
 1009 0505 93        		.byte	0x93
 1010 0506 01        		.uleb128 0x1
 1011 0507 09        		.byte	0x9
 1012 0508 81        		.byte	0x81
 1013 0509 00        		.sleb128 0
 1014 050a 08        		.byte	0x8
 1015 050b FF        		.byte	0xff
 1016 050c 1A        		.byte	0x1a
 1017 050d 3A        		.byte	0x3a
 1018 050e 1E        		.byte	0x1e
 1019 050f 23        		.byte	0x23
 1020 0510 64        		.uleb128 0x64
 1021 0511 00        		.byte	0
 1022 0512 1D        		.uleb128 0x1d
 1023 0513 0000 0000 		.long	.LVL51
 1024 0517 01        		.byte	0x1
 1025 0518 4F04 0000 		.long	0x44f
 1026 051c 1E        		.uleb128 0x1e
 1027 051d 06        		.byte	0x6
 1028 051e 68        		.byte	0x68
 1029 051f 93        		.byte	0x93
 1030 0520 01        		.uleb128 0x1
 1031 0521 69        		.byte	0x69
 1032 0522 93        		.byte	0x93
 1033 0523 01        		.uleb128 0x1
 1034 0524 03        		.byte	0x3
 1035 0525 F3        		.byte	0xf3
 1036 0526 01        		.uleb128 0x1
 1037 0527 68        		.byte	0x68
 1038 0528 00        		.byte	0
 1039 0529 00        		.byte	0
 1040 052a 21        		.uleb128 0x21
 1041 052b 01        		.byte	0x1
 1042 052c 0000 0000 		.long	.LASF47
 1043 0530 05        		.byte	0x5
 1044 0531 AA01      		.word	0x1aa
 1045 0533 4205 0000 		.long	0x542
 1046 0537 01        		.byte	0x1
 1047 0538 4205 0000 		.long	0x542
 1048 053c 09        		.uleb128 0x9
GAS LISTING /var/folders/86/8ymzt0g934z5dpmztl89nd000000gn/T//cchcDLWH.s 			page 21


 1049 053d 4205 0000 		.long	0x542
 1050 0541 00        		.byte	0
 1051 0542 02        		.uleb128 0x2
 1052 0543 04        		.byte	0x4
 1053 0544 04        		.byte	0x4
 1054 0545 0000 0000 		.long	.LASF48
 1055 0549 00        		.byte	0
 1056               		.section	.debug_abbrev,"",@progbits
 1057               	.Ldebug_abbrev0:
 1058 0000 01        		.uleb128 0x1
 1059 0001 11        		.uleb128 0x11
 1060 0002 01        		.byte	0x1
 1061 0003 25        		.uleb128 0x25
 1062 0004 0E        		.uleb128 0xe
 1063 0005 13        		.uleb128 0x13
 1064 0006 0B        		.uleb128 0xb
 1065 0007 03        		.uleb128 0x3
 1066 0008 0E        		.uleb128 0xe
 1067 0009 1B        		.uleb128 0x1b
 1068 000a 0E        		.uleb128 0xe
 1069 000b 11        		.uleb128 0x11
 1070 000c 01        		.uleb128 0x1
 1071 000d 12        		.uleb128 0x12
 1072 000e 01        		.uleb128 0x1
 1073 000f 10        		.uleb128 0x10
 1074 0010 06        		.uleb128 0x6
 1075 0011 00        		.byte	0
 1076 0012 00        		.byte	0
 1077 0013 02        		.uleb128 0x2
 1078 0014 24        		.uleb128 0x24
 1079 0015 00        		.byte	0
 1080 0016 0B        		.uleb128 0xb
 1081 0017 0B        		.uleb128 0xb
 1082 0018 3E        		.uleb128 0x3e
 1083 0019 0B        		.uleb128 0xb
 1084 001a 03        		.uleb128 0x3
 1085 001b 0E        		.uleb128 0xe
 1086 001c 00        		.byte	0
 1087 001d 00        		.byte	0
 1088 001e 03        		.uleb128 0x3
 1089 001f 16        		.uleb128 0x16
 1090 0020 00        		.byte	0
 1091 0021 03        		.uleb128 0x3
 1092 0022 0E        		.uleb128 0xe
 1093 0023 3A        		.uleb128 0x3a
 1094 0024 0B        		.uleb128 0xb
 1095 0025 3B        		.uleb128 0x3b
 1096 0026 0B        		.uleb128 0xb
 1097 0027 49        		.uleb128 0x49
 1098 0028 13        		.uleb128 0x13
 1099 0029 00        		.byte	0
 1100 002a 00        		.byte	0
 1101 002b 04        		.uleb128 0x4
 1102 002c 24        		.uleb128 0x24
 1103 002d 00        		.byte	0
 1104 002e 0B        		.uleb128 0xb
 1105 002f 0B        		.uleb128 0xb
GAS LISTING /var/folders/86/8ymzt0g934z5dpmztl89nd000000gn/T//cchcDLWH.s 			page 22


 1106 0030 3E        		.uleb128 0x3e
 1107 0031 0B        		.uleb128 0xb
 1108 0032 03        		.uleb128 0x3
 1109 0033 08        		.uleb128 0x8
 1110 0034 00        		.byte	0
 1111 0035 00        		.byte	0
 1112 0036 05        		.uleb128 0x5
 1113 0037 02        		.uleb128 0x2
 1114 0038 01        		.byte	0x1
 1115 0039 03        		.uleb128 0x3
 1116 003a 0E        		.uleb128 0xe
 1117 003b 0B        		.uleb128 0xb
 1118 003c 0B        		.uleb128 0xb
 1119 003d 3A        		.uleb128 0x3a
 1120 003e 0B        		.uleb128 0xb
 1121 003f 3B        		.uleb128 0x3b
 1122 0040 0B        		.uleb128 0xb
 1123 0041 01        		.uleb128 0x1
 1124 0042 13        		.uleb128 0x13
 1125 0043 00        		.byte	0
 1126 0044 00        		.byte	0
 1127 0045 06        		.uleb128 0x6
 1128 0046 2E        		.uleb128 0x2e
 1129 0047 01        		.byte	0x1
 1130 0048 3F        		.uleb128 0x3f
 1131 0049 0C        		.uleb128 0xc
 1132 004a 03        		.uleb128 0x3
 1133 004b 0E        		.uleb128 0xe
 1134 004c 3A        		.uleb128 0x3a
 1135 004d 0B        		.uleb128 0xb
 1136 004e 3B        		.uleb128 0x3b
 1137 004f 0B        		.uleb128 0xb
 1138 0050 8740      		.uleb128 0x2007
 1139 0052 0E        		.uleb128 0xe
 1140 0053 3C        		.uleb128 0x3c
 1141 0054 0C        		.uleb128 0xc
 1142 0055 64        		.uleb128 0x64
 1143 0056 13        		.uleb128 0x13
 1144 0057 01        		.uleb128 0x1
 1145 0058 13        		.uleb128 0x13
 1146 0059 00        		.byte	0
 1147 005a 00        		.byte	0
 1148 005b 07        		.uleb128 0x7
 1149 005c 05        		.uleb128 0x5
 1150 005d 00        		.byte	0
 1151 005e 49        		.uleb128 0x49
 1152 005f 13        		.uleb128 0x13
 1153 0060 34        		.uleb128 0x34
 1154 0061 0C        		.uleb128 0xc
 1155 0062 00        		.byte	0
 1156 0063 00        		.byte	0
 1157 0064 08        		.uleb128 0x8
 1158 0065 2E        		.uleb128 0x2e
 1159 0066 01        		.byte	0x1
 1160 0067 3F        		.uleb128 0x3f
 1161 0068 0C        		.uleb128 0xc
 1162 0069 03        		.uleb128 0x3
GAS LISTING /var/folders/86/8ymzt0g934z5dpmztl89nd000000gn/T//cchcDLWH.s 			page 23


 1163 006a 0E        		.uleb128 0xe
 1164 006b 3A        		.uleb128 0x3a
 1165 006c 0B        		.uleb128 0xb
 1166 006d 3B        		.uleb128 0x3b
 1167 006e 0B        		.uleb128 0xb
 1168 006f 8740      		.uleb128 0x2007
 1169 0071 0E        		.uleb128 0xe
 1170 0072 49        		.uleb128 0x49
 1171 0073 13        		.uleb128 0x13
 1172 0074 3C        		.uleb128 0x3c
 1173 0075 0C        		.uleb128 0xc
 1174 0076 64        		.uleb128 0x64
 1175 0077 13        		.uleb128 0x13
 1176 0078 01        		.uleb128 0x1
 1177 0079 13        		.uleb128 0x13
 1178 007a 00        		.byte	0
 1179 007b 00        		.byte	0
 1180 007c 09        		.uleb128 0x9
 1181 007d 05        		.uleb128 0x5
 1182 007e 00        		.byte	0
 1183 007f 49        		.uleb128 0x49
 1184 0080 13        		.uleb128 0x13
 1185 0081 00        		.byte	0
 1186 0082 00        		.byte	0
 1187 0083 0A        		.uleb128 0xa
 1188 0084 2E        		.uleb128 0x2e
 1189 0085 01        		.byte	0x1
 1190 0086 3F        		.uleb128 0x3f
 1191 0087 0C        		.uleb128 0xc
 1192 0088 03        		.uleb128 0x3
 1193 0089 0E        		.uleb128 0xe
 1194 008a 3A        		.uleb128 0x3a
 1195 008b 0B        		.uleb128 0xb
 1196 008c 3B        		.uleb128 0x3b
 1197 008d 0B        		.uleb128 0xb
 1198 008e 8740      		.uleb128 0x2007
 1199 0090 0E        		.uleb128 0xe
 1200 0091 3C        		.uleb128 0x3c
 1201 0092 0C        		.uleb128 0xc
 1202 0093 00        		.byte	0
 1203 0094 00        		.byte	0
 1204 0095 0B        		.uleb128 0xb
 1205 0096 0F        		.uleb128 0xf
 1206 0097 00        		.byte	0
 1207 0098 0B        		.uleb128 0xb
 1208 0099 0B        		.uleb128 0xb
 1209 009a 49        		.uleb128 0x49
 1210 009b 13        		.uleb128 0x13
 1211 009c 00        		.byte	0
 1212 009d 00        		.byte	0
 1213 009e 0C        		.uleb128 0xc
 1214 009f 0D        		.uleb128 0xd
 1215 00a0 00        		.byte	0
 1216 00a1 03        		.uleb128 0x3
 1217 00a2 0E        		.uleb128 0xe
 1218 00a3 3A        		.uleb128 0x3a
 1219 00a4 0B        		.uleb128 0xb
GAS LISTING /var/folders/86/8ymzt0g934z5dpmztl89nd000000gn/T//cchcDLWH.s 			page 24


 1220 00a5 3B        		.uleb128 0x3b
 1221 00a6 0B        		.uleb128 0xb
 1222 00a7 49        		.uleb128 0x49
 1223 00a8 13        		.uleb128 0x13
 1224 00a9 38        		.uleb128 0x38
 1225 00aa 0A        		.uleb128 0xa
 1226 00ab 32        		.uleb128 0x32
 1227 00ac 0B        		.uleb128 0xb
 1228 00ad 00        		.byte	0
 1229 00ae 00        		.byte	0
 1230 00af 0D        		.uleb128 0xd
 1231 00b0 2E        		.uleb128 0x2e
 1232 00b1 01        		.byte	0x1
 1233 00b2 3F        		.uleb128 0x3f
 1234 00b3 0C        		.uleb128 0xc
 1235 00b4 03        		.uleb128 0x3
 1236 00b5 0E        		.uleb128 0xe
 1237 00b6 3A        		.uleb128 0x3a
 1238 00b7 0B        		.uleb128 0xb
 1239 00b8 3B        		.uleb128 0x3b
 1240 00b9 0B        		.uleb128 0xb
 1241 00ba 3C        		.uleb128 0x3c
 1242 00bb 0C        		.uleb128 0xc
 1243 00bc 64        		.uleb128 0x64
 1244 00bd 13        		.uleb128 0x13
 1245 00be 01        		.uleb128 0x1
 1246 00bf 13        		.uleb128 0x13
 1247 00c0 00        		.byte	0
 1248 00c1 00        		.byte	0
 1249 00c2 0E        		.uleb128 0xe
 1250 00c3 2E        		.uleb128 0x2e
 1251 00c4 01        		.byte	0x1
 1252 00c5 3F        		.uleb128 0x3f
 1253 00c6 0C        		.uleb128 0xc
 1254 00c7 03        		.uleb128 0x3
 1255 00c8 0E        		.uleb128 0xe
 1256 00c9 3A        		.uleb128 0x3a
 1257 00ca 0B        		.uleb128 0xb
 1258 00cb 3B        		.uleb128 0x3b
 1259 00cc 0B        		.uleb128 0xb
 1260 00cd 8740      		.uleb128 0x2007
 1261 00cf 0E        		.uleb128 0xe
 1262 00d0 32        		.uleb128 0x32
 1263 00d1 0B        		.uleb128 0xb
 1264 00d2 3C        		.uleb128 0x3c
 1265 00d3 0C        		.uleb128 0xc
 1266 00d4 64        		.uleb128 0x64
 1267 00d5 13        		.uleb128 0x13
 1268 00d6 00        		.byte	0
 1269 00d7 00        		.byte	0
 1270 00d8 0F        		.uleb128 0xf
 1271 00d9 26        		.uleb128 0x26
 1272 00da 00        		.byte	0
 1273 00db 49        		.uleb128 0x49
 1274 00dc 13        		.uleb128 0x13
 1275 00dd 00        		.byte	0
 1276 00de 00        		.byte	0
GAS LISTING /var/folders/86/8ymzt0g934z5dpmztl89nd000000gn/T//cchcDLWH.s 			page 25


 1277 00df 10        		.uleb128 0x10
 1278 00e0 2E        		.uleb128 0x2e
 1279 00e1 01        		.byte	0x1
 1280 00e2 47        		.uleb128 0x47
 1281 00e3 13        		.uleb128 0x13
 1282 00e4 3A        		.uleb128 0x3a
 1283 00e5 0B        		.uleb128 0xb
 1284 00e6 3B        		.uleb128 0x3b
 1285 00e7 0B        		.uleb128 0xb
 1286 00e8 20        		.uleb128 0x20
 1287 00e9 0B        		.uleb128 0xb
 1288 00ea 64        		.uleb128 0x64
 1289 00eb 13        		.uleb128 0x13
 1290 00ec 01        		.uleb128 0x1
 1291 00ed 13        		.uleb128 0x13
 1292 00ee 00        		.byte	0
 1293 00ef 00        		.byte	0
 1294 00f0 11        		.uleb128 0x11
 1295 00f1 05        		.uleb128 0x5
 1296 00f2 00        		.byte	0
 1297 00f3 03        		.uleb128 0x3
 1298 00f4 0E        		.uleb128 0xe
 1299 00f5 49        		.uleb128 0x49
 1300 00f6 13        		.uleb128 0x13
 1301 00f7 34        		.uleb128 0x34
 1302 00f8 0C        		.uleb128 0xc
 1303 00f9 00        		.byte	0
 1304 00fa 00        		.byte	0
 1305 00fb 12        		.uleb128 0x12
 1306 00fc 05        		.uleb128 0x5
 1307 00fd 00        		.byte	0
 1308 00fe 03        		.uleb128 0x3
 1309 00ff 0E        		.uleb128 0xe
 1310 0100 3A        		.uleb128 0x3a
 1311 0101 0B        		.uleb128 0xb
 1312 0102 3B        		.uleb128 0x3b
 1313 0103 0B        		.uleb128 0xb
 1314 0104 49        		.uleb128 0x49
 1315 0105 13        		.uleb128 0x13
 1316 0106 00        		.byte	0
 1317 0107 00        		.byte	0
 1318 0108 13        		.uleb128 0x13
 1319 0109 2E        		.uleb128 0x2e
 1320 010a 01        		.byte	0x1
 1321 010b 31        		.uleb128 0x31
 1322 010c 13        		.uleb128 0x13
 1323 010d 8740      		.uleb128 0x2007
 1324 010f 0E        		.uleb128 0xe
 1325 0110 11        		.uleb128 0x11
 1326 0111 01        		.uleb128 0x1
 1327 0112 12        		.uleb128 0x12
 1328 0113 01        		.uleb128 0x1
 1329 0114 40        		.uleb128 0x40
 1330 0115 0A        		.uleb128 0xa
 1331 0116 64        		.uleb128 0x64
 1332 0117 13        		.uleb128 0x13
 1333 0118 9742      		.uleb128 0x2117
GAS LISTING /var/folders/86/8ymzt0g934z5dpmztl89nd000000gn/T//cchcDLWH.s 			page 26


 1334 011a 0C        		.uleb128 0xc
 1335 011b 01        		.uleb128 0x1
 1336 011c 13        		.uleb128 0x13
 1337 011d 00        		.byte	0
 1338 011e 00        		.byte	0
 1339 011f 14        		.uleb128 0x14
 1340 0120 05        		.uleb128 0x5
 1341 0121 00        		.byte	0
 1342 0122 31        		.uleb128 0x31
 1343 0123 13        		.uleb128 0x13
 1344 0124 02        		.uleb128 0x2
 1345 0125 0A        		.uleb128 0xa
 1346 0126 00        		.byte	0
 1347 0127 00        		.byte	0
 1348 0128 15        		.uleb128 0x15
 1349 0129 2E        		.uleb128 0x2e
 1350 012a 01        		.byte	0x1
 1351 012b 47        		.uleb128 0x47
 1352 012c 13        		.uleb128 0x13
 1353 012d 3A        		.uleb128 0x3a
 1354 012e 0B        		.uleb128 0xb
 1355 012f 3B        		.uleb128 0x3b
 1356 0130 0B        		.uleb128 0xb
 1357 0131 11        		.uleb128 0x11
 1358 0132 01        		.uleb128 0x1
 1359 0133 12        		.uleb128 0x12
 1360 0134 01        		.uleb128 0x1
 1361 0135 40        		.uleb128 0x40
 1362 0136 0A        		.uleb128 0xa
 1363 0137 64        		.uleb128 0x64
 1364 0138 13        		.uleb128 0x13
 1365 0139 9742      		.uleb128 0x2117
 1366 013b 0C        		.uleb128 0xc
 1367 013c 01        		.uleb128 0x1
 1368 013d 13        		.uleb128 0x13
 1369 013e 00        		.byte	0
 1370 013f 00        		.byte	0
 1371 0140 16        		.uleb128 0x16
 1372 0141 05        		.uleb128 0x5
 1373 0142 00        		.byte	0
 1374 0143 03        		.uleb128 0x3
 1375 0144 0E        		.uleb128 0xe
 1376 0145 49        		.uleb128 0x49
 1377 0146 13        		.uleb128 0x13
 1378 0147 34        		.uleb128 0x34
 1379 0148 0C        		.uleb128 0xc
 1380 0149 02        		.uleb128 0x2
 1381 014a 06        		.uleb128 0x6
 1382 014b 00        		.byte	0
 1383 014c 00        		.byte	0
 1384 014d 17        		.uleb128 0x17
 1385 014e 05        		.uleb128 0x5
 1386 014f 00        		.byte	0
 1387 0150 03        		.uleb128 0x3
 1388 0151 0E        		.uleb128 0xe
 1389 0152 3A        		.uleb128 0x3a
 1390 0153 0B        		.uleb128 0xb
GAS LISTING /var/folders/86/8ymzt0g934z5dpmztl89nd000000gn/T//cchcDLWH.s 			page 27


 1391 0154 3B        		.uleb128 0x3b
 1392 0155 0B        		.uleb128 0xb
 1393 0156 49        		.uleb128 0x49
 1394 0157 13        		.uleb128 0x13
 1395 0158 02        		.uleb128 0x2
 1396 0159 0A        		.uleb128 0xa
 1397 015a 00        		.byte	0
 1398 015b 00        		.byte	0
 1399 015c 18        		.uleb128 0x18
 1400 015d 05        		.uleb128 0x5
 1401 015e 00        		.byte	0
 1402 015f 03        		.uleb128 0x3
 1403 0160 0E        		.uleb128 0xe
 1404 0161 3A        		.uleb128 0x3a
 1405 0162 0B        		.uleb128 0xb
 1406 0163 3B        		.uleb128 0x3b
 1407 0164 0B        		.uleb128 0xb
 1408 0165 49        		.uleb128 0x49
 1409 0166 13        		.uleb128 0x13
 1410 0167 02        		.uleb128 0x2
 1411 0168 06        		.uleb128 0x6
 1412 0169 00        		.byte	0
 1413 016a 00        		.byte	0
 1414 016b 19        		.uleb128 0x19
 1415 016c 2E        		.uleb128 0x2e
 1416 016d 01        		.byte	0x1
 1417 016e 47        		.uleb128 0x47
 1418 016f 13        		.uleb128 0x13
 1419 0170 3A        		.uleb128 0x3a
 1420 0171 0B        		.uleb128 0xb
 1421 0172 3B        		.uleb128 0x3b
 1422 0173 0B        		.uleb128 0xb
 1423 0174 11        		.uleb128 0x11
 1424 0175 01        		.uleb128 0x1
 1425 0176 12        		.uleb128 0x12
 1426 0177 01        		.uleb128 0x1
 1427 0178 40        		.uleb128 0x40
 1428 0179 06        		.uleb128 0x6
 1429 017a 64        		.uleb128 0x64
 1430 017b 13        		.uleb128 0x13
 1431 017c 9642      		.uleb128 0x2116
 1432 017e 0C        		.uleb128 0xc
 1433 017f 01        		.uleb128 0x1
 1434 0180 13        		.uleb128 0x13
 1435 0181 00        		.byte	0
 1436 0182 00        		.byte	0
 1437 0183 1A        		.uleb128 0x1a
 1438 0184 0B        		.uleb128 0xb
 1439 0185 01        		.byte	0x1
 1440 0186 55        		.uleb128 0x55
 1441 0187 06        		.uleb128 0x6
 1442 0188 00        		.byte	0
 1443 0189 00        		.byte	0
 1444 018a 1B        		.uleb128 0x1b
 1445 018b 34        		.uleb128 0x34
 1446 018c 00        		.byte	0
 1447 018d 03        		.uleb128 0x3
GAS LISTING /var/folders/86/8ymzt0g934z5dpmztl89nd000000gn/T//cchcDLWH.s 			page 28


 1448 018e 0E        		.uleb128 0xe
 1449 018f 3A        		.uleb128 0x3a
 1450 0190 0B        		.uleb128 0xb
 1451 0191 3B        		.uleb128 0x3b
 1452 0192 0B        		.uleb128 0xb
 1453 0193 49        		.uleb128 0x49
 1454 0194 13        		.uleb128 0x13
 1455 0195 02        		.uleb128 0x2
 1456 0196 06        		.uleb128 0x6
 1457 0197 00        		.byte	0
 1458 0198 00        		.byte	0
 1459 0199 1C        		.uleb128 0x1c
 1460 019a 8982 01   		.uleb128 0x4109
 1461 019d 00        		.byte	0
 1462 019e 11        		.uleb128 0x11
 1463 019f 01        		.uleb128 0x1
 1464 01a0 31        		.uleb128 0x31
 1465 01a1 13        		.uleb128 0x13
 1466 01a2 00        		.byte	0
 1467 01a3 00        		.byte	0
 1468 01a4 1D        		.uleb128 0x1d
 1469 01a5 8982 01   		.uleb128 0x4109
 1470 01a8 01        		.byte	0x1
 1471 01a9 11        		.uleb128 0x11
 1472 01aa 01        		.uleb128 0x1
 1473 01ab 9542      		.uleb128 0x2115
 1474 01ad 0C        		.uleb128 0xc
 1475 01ae 31        		.uleb128 0x31
 1476 01af 13        		.uleb128 0x13
 1477 01b0 00        		.byte	0
 1478 01b1 00        		.byte	0
 1479 01b2 1E        		.uleb128 0x1e
 1480 01b3 8A82 01   		.uleb128 0x410a
 1481 01b6 00        		.byte	0
 1482 01b7 02        		.uleb128 0x2
 1483 01b8 0A        		.uleb128 0xa
 1484 01b9 9142      		.uleb128 0x2111
 1485 01bb 0A        		.uleb128 0xa
 1486 01bc 00        		.byte	0
 1487 01bd 00        		.byte	0
 1488 01be 1F        		.uleb128 0x1f
 1489 01bf 2E        		.uleb128 0x2e
 1490 01c0 01        		.byte	0x1
 1491 01c1 47        		.uleb128 0x47
 1492 01c2 13        		.uleb128 0x13
 1493 01c3 3A        		.uleb128 0x3a
 1494 01c4 0B        		.uleb128 0xb
 1495 01c5 3B        		.uleb128 0x3b
 1496 01c6 0B        		.uleb128 0xb
 1497 01c7 11        		.uleb128 0x11
 1498 01c8 01        		.uleb128 0x1
 1499 01c9 12        		.uleb128 0x12
 1500 01ca 01        		.uleb128 0x1
 1501 01cb 40        		.uleb128 0x40
 1502 01cc 06        		.uleb128 0x6
 1503 01cd 64        		.uleb128 0x64
 1504 01ce 13        		.uleb128 0x13
GAS LISTING /var/folders/86/8ymzt0g934z5dpmztl89nd000000gn/T//cchcDLWH.s 			page 29


 1505 01cf 9742      		.uleb128 0x2117
 1506 01d1 0C        		.uleb128 0xc
 1507 01d2 01        		.uleb128 0x1
 1508 01d3 13        		.uleb128 0x13
 1509 01d4 00        		.byte	0
 1510 01d5 00        		.byte	0
 1511 01d6 20        		.uleb128 0x20
 1512 01d7 8982 01   		.uleb128 0x4109
 1513 01da 01        		.byte	0x1
 1514 01db 11        		.uleb128 0x11
 1515 01dc 01        		.uleb128 0x1
 1516 01dd 31        		.uleb128 0x31
 1517 01de 13        		.uleb128 0x13
 1518 01df 01        		.uleb128 0x1
 1519 01e0 13        		.uleb128 0x13
 1520 01e1 00        		.byte	0
 1521 01e2 00        		.byte	0
 1522 01e3 21        		.uleb128 0x21
 1523 01e4 2E        		.uleb128 0x2e
 1524 01e5 01        		.byte	0x1
 1525 01e6 3F        		.uleb128 0x3f
 1526 01e7 0C        		.uleb128 0xc
 1527 01e8 03        		.uleb128 0x3
 1528 01e9 0E        		.uleb128 0xe
 1529 01ea 3A        		.uleb128 0x3a
 1530 01eb 0B        		.uleb128 0xb
 1531 01ec 3B        		.uleb128 0x3b
 1532 01ed 05        		.uleb128 0x5
 1533 01ee 49        		.uleb128 0x49
 1534 01ef 13        		.uleb128 0x13
 1535 01f0 3C        		.uleb128 0x3c
 1536 01f1 0C        		.uleb128 0xc
 1537 01f2 01        		.uleb128 0x1
 1538 01f3 13        		.uleb128 0x13
 1539 01f4 00        		.byte	0
 1540 01f5 00        		.byte	0
 1541 01f6 00        		.byte	0
 1542               		.section	.debug_loc,"",@progbits
 1543               	.Ldebug_loc0:
 1544               	.LLST0:
 1545 0000 0800 0000 		.long	.LVL1-.Ltext0
 1546 0004 0E00 0000 		.long	.LVL2-.Ltext0
 1547 0008 0600      		.word	0x6
 1548 000a 68        		.byte	0x68
 1549 000b 93        		.byte	0x93
 1550 000c 01        		.uleb128 0x1
 1551 000d 69        		.byte	0x69
 1552 000e 93        		.byte	0x93
 1553 000f 01        		.uleb128 0x1
 1554 0010 0E00 0000 		.long	.LVL2-.Ltext0
 1555 0014 4600 0000 		.long	.LFE13-.Ltext0
 1556 0018 0400      		.word	0x4
 1557 001a F3        		.byte	0xf3
 1558 001b 01        		.uleb128 0x1
 1559 001c 68        		.byte	0x68
 1560 001d 9F        		.byte	0x9f
 1561 001e 0000 0000 		.long	0
GAS LISTING /var/folders/86/8ymzt0g934z5dpmztl89nd000000gn/T//cchcDLWH.s 			page 30


 1562 0022 0000 0000 		.long	0
 1563               	.LLST1:
 1564 0026 0800 0000 		.long	.LVL1-.Ltext0
 1565 002a 4000 0000 		.long	.LVL3-.Ltext0
 1566 002e 0100      		.word	0x1
 1567 0030 62        		.byte	0x62
 1568 0031 4000 0000 		.long	.LVL3-.Ltext0
 1569 0035 4600 0000 		.long	.LFE13-.Ltext0
 1570 0039 0400      		.word	0x4
 1571 003b F3        		.byte	0xf3
 1572 003c 01        		.uleb128 0x1
 1573 003d 62        		.byte	0x62
 1574 003e 9F        		.byte	0x9f
 1575 003f 0000 0000 		.long	0
 1576 0043 0000 0000 		.long	0
 1577               	.LLST2:
 1578 0047 4600 0000 		.long	.LFB9-.Ltext0
 1579 004b 4800 0000 		.long	.LCFI0-.Ltext0
 1580 004f 0300      		.word	0x3
 1581 0051 92        		.byte	0x92
 1582 0052 20        		.uleb128 0x20
 1583 0053 02        		.sleb128 2
 1584 0054 4800 0000 		.long	.LCFI0-.Ltext0
 1585 0058 4A00 0000 		.long	.LCFI1-.Ltext0
 1586 005c 0300      		.word	0x3
 1587 005e 92        		.byte	0x92
 1588 005f 20        		.uleb128 0x20
 1589 0060 03        		.sleb128 3
 1590 0061 4A00 0000 		.long	.LCFI1-.Ltext0
 1591 0065 4C00 0000 		.long	.LCFI2-.Ltext0
 1592 0069 0300      		.word	0x3
 1593 006b 92        		.byte	0x92
 1594 006c 20        		.uleb128 0x20
 1595 006d 04        		.sleb128 4
 1596 006e 4C00 0000 		.long	.LCFI2-.Ltext0
 1597 0072 BC00 0000 		.long	.LFE9-.Ltext0
 1598 0076 0300      		.word	0x3
 1599 0078 92        		.byte	0x92
 1600 0079 20        		.uleb128 0x20
 1601 007a 05        		.sleb128 5
 1602 007b 0000 0000 		.long	0
 1603 007f 0000 0000 		.long	0
 1604               	.LLST3:
 1605 0083 4600 0000 		.long	.LVL4-.Ltext0
 1606 0087 5A00 0000 		.long	.LVL6-.Ltext0
 1607 008b 0600      		.word	0x6
 1608 008d 68        		.byte	0x68
 1609 008e 93        		.byte	0x93
 1610 008f 01        		.uleb128 0x1
 1611 0090 69        		.byte	0x69
 1612 0091 93        		.byte	0x93
 1613 0092 01        		.uleb128 0x1
 1614 0093 5A00 0000 		.long	.LVL6-.Ltext0
 1615 0097 7E00 0000 		.long	.LVL14-.Ltext0
 1616 009b 0600      		.word	0x6
 1617 009d 6C        		.byte	0x6c
 1618 009e 93        		.byte	0x93
GAS LISTING /var/folders/86/8ymzt0g934z5dpmztl89nd000000gn/T//cchcDLWH.s 			page 31


 1619 009f 01        		.uleb128 0x1
 1620 00a0 6D        		.byte	0x6d
 1621 00a1 93        		.byte	0x93
 1622 00a2 01        		.uleb128 0x1
 1623 00a3 7E00 0000 		.long	.LVL14-.Ltext0
 1624 00a7 9000 0000 		.long	.LVL15-.Ltext0
 1625 00ab 0600      		.word	0x6
 1626 00ad 68        		.byte	0x68
 1627 00ae 93        		.byte	0x93
 1628 00af 01        		.uleb128 0x1
 1629 00b0 69        		.byte	0x69
 1630 00b1 93        		.byte	0x93
 1631 00b2 01        		.uleb128 0x1
 1632 00b3 9000 0000 		.long	.LVL15-.Ltext0
 1633 00b7 B600 0000 		.long	.LVL20-.Ltext0
 1634 00bb 0600      		.word	0x6
 1635 00bd 6C        		.byte	0x6c
 1636 00be 93        		.byte	0x93
 1637 00bf 01        		.uleb128 0x1
 1638 00c0 6D        		.byte	0x6d
 1639 00c1 93        		.byte	0x93
 1640 00c2 01        		.uleb128 0x1
 1641 00c3 B600 0000 		.long	.LVL20-.Ltext0
 1642 00c7 BB00 0000 		.long	.LVL22-1-.Ltext0
 1643 00cb 0600      		.word	0x6
 1644 00cd 68        		.byte	0x68
 1645 00ce 93        		.byte	0x93
 1646 00cf 01        		.uleb128 0x1
 1647 00d0 69        		.byte	0x69
 1648 00d1 93        		.byte	0x93
 1649 00d2 01        		.uleb128 0x1
 1650 00d3 BB00 0000 		.long	.LVL22-1-.Ltext0
 1651 00d7 BC00 0000 		.long	.LFE9-.Ltext0
 1652 00db 0400      		.word	0x4
 1653 00dd F3        		.byte	0xf3
 1654 00de 01        		.uleb128 0x1
 1655 00df 68        		.byte	0x68
 1656 00e0 9F        		.byte	0x9f
 1657 00e1 0000 0000 		.long	0
 1658 00e5 0000 0000 		.long	0
 1659               	.LLST4:
 1660 00e9 4600 0000 		.long	.LVL4-.Ltext0
 1661 00ed 5E00 0000 		.long	.LVL7-.Ltext0
 1662 00f1 0100      		.word	0x1
 1663 00f3 66        		.byte	0x66
 1664 00f4 5E00 0000 		.long	.LVL7-.Ltext0
 1665 00f8 7E00 0000 		.long	.LVL14-.Ltext0
 1666 00fc 0400      		.word	0x4
 1667 00fe F3        		.byte	0xf3
 1668 00ff 01        		.uleb128 0x1
 1669 0100 66        		.byte	0x66
 1670 0101 9F        		.byte	0x9f
 1671 0102 7E00 0000 		.long	.LVL14-.Ltext0
 1672 0106 9400 0000 		.long	.LVL16-.Ltext0
 1673 010a 0100      		.word	0x1
 1674 010c 66        		.byte	0x66
 1675 010d 9400 0000 		.long	.LVL16-.Ltext0
GAS LISTING /var/folders/86/8ymzt0g934z5dpmztl89nd000000gn/T//cchcDLWH.s 			page 32


 1676 0111 BC00 0000 		.long	.LFE9-.Ltext0
 1677 0115 0400      		.word	0x4
 1678 0117 F3        		.byte	0xf3
 1679 0118 01        		.uleb128 0x1
 1680 0119 66        		.byte	0x66
 1681 011a 9F        		.byte	0x9f
 1682 011b 0000 0000 		.long	0
 1683 011f 0000 0000 		.long	0
 1684               	.LLST5:
 1685 0123 5000 0000 		.long	.LVL5-.Ltext0
 1686 0127 7C00 0000 		.long	.LVL13-.Ltext0
 1687 012b 0100      		.word	0x1
 1688 012d 61        		.byte	0x61
 1689 012e 7C00 0000 		.long	.LVL13-.Ltext0
 1690 0132 7E00 0000 		.long	.LVL14-.Ltext0
 1691 0136 0100      		.word	0x1
 1692 0138 66        		.byte	0x66
 1693 0139 7E00 0000 		.long	.LVL14-.Ltext0
 1694 013d AC00 0000 		.long	.LVL19-.Ltext0
 1695 0141 0100      		.word	0x1
 1696 0143 61        		.byte	0x61
 1697 0144 AC00 0000 		.long	.LVL19-.Ltext0
 1698 0148 BB00 0000 		.long	.LVL22-1-.Ltext0
 1699 014c 0100      		.word	0x1
 1700 014e 66        		.byte	0x66
 1701 014f 0000 0000 		.long	0
 1702 0153 0000 0000 		.long	0
 1703               	.LLST6:
 1704 0157 5000 0000 		.long	.LVL5-.Ltext0
 1705 015b 7800 0000 		.long	.LVL11-.Ltext0
 1706 015f 0100      		.word	0x1
 1707 0161 61        		.byte	0x61
 1708 0162 7800 0000 		.long	.LVL11-.Ltext0
 1709 0166 7A00 0000 		.long	.LVL12-.Ltext0
 1710 016a 0100      		.word	0x1
 1711 016c 66        		.byte	0x66
 1712 016d 7A00 0000 		.long	.LVL12-.Ltext0
 1713 0171 7E00 0000 		.long	.LVL14-.Ltext0
 1714 0175 0100      		.word	0x1
 1715 0177 68        		.byte	0x68
 1716 0178 7E00 0000 		.long	.LVL14-.Ltext0
 1717 017c B800 0000 		.long	.LVL21-.Ltext0
 1718 0180 0100      		.word	0x1
 1719 0182 61        		.byte	0x61
 1720 0183 B800 0000 		.long	.LVL21-.Ltext0
 1721 0187 BB00 0000 		.long	.LVL22-1-.Ltext0
 1722 018b 0100      		.word	0x1
 1723 018d 64        		.byte	0x64
 1724 018e 0000 0000 		.long	0
 1725 0192 0000 0000 		.long	0
 1726               	.LLST7:
 1727 0196 BC00 0000 		.long	.LFB10-.Ltext0
 1728 019a BE00 0000 		.long	.LCFI3-.Ltext0
 1729 019e 0300      		.word	0x3
 1730 01a0 92        		.byte	0x92
 1731 01a1 20        		.uleb128 0x20
 1732 01a2 02        		.sleb128 2
GAS LISTING /var/folders/86/8ymzt0g934z5dpmztl89nd000000gn/T//cchcDLWH.s 			page 33


 1733 01a3 BE00 0000 		.long	.LCFI3-.Ltext0
 1734 01a7 C000 0000 		.long	.LCFI4-.Ltext0
 1735 01ab 0300      		.word	0x3
 1736 01ad 92        		.byte	0x92
 1737 01ae 20        		.uleb128 0x20
 1738 01af 03        		.sleb128 3
 1739 01b0 C000 0000 		.long	.LCFI4-.Ltext0
 1740 01b4 C200 0000 		.long	.LCFI5-.Ltext0
 1741 01b8 0300      		.word	0x3
 1742 01ba 92        		.byte	0x92
 1743 01bb 20        		.uleb128 0x20
 1744 01bc 04        		.sleb128 4
 1745 01bd C200 0000 		.long	.LCFI5-.Ltext0
 1746 01c1 3201 0000 		.long	.LFE10-.Ltext0
 1747 01c5 0300      		.word	0x3
 1748 01c7 92        		.byte	0x92
 1749 01c8 20        		.uleb128 0x20
 1750 01c9 05        		.sleb128 5
 1751 01ca 0000 0000 		.long	0
 1752 01ce 0000 0000 		.long	0
 1753               	.LLST8:
 1754 01d2 BC00 0000 		.long	.LVL23-.Ltext0
 1755 01d6 D000 0000 		.long	.LVL25-.Ltext0
 1756 01da 0600      		.word	0x6
 1757 01dc 68        		.byte	0x68
 1758 01dd 93        		.byte	0x93
 1759 01de 01        		.uleb128 0x1
 1760 01df 69        		.byte	0x69
 1761 01e0 93        		.byte	0x93
 1762 01e1 01        		.uleb128 0x1
 1763 01e2 D000 0000 		.long	.LVL25-.Ltext0
 1764 01e6 F400 0000 		.long	.LVL33-.Ltext0
 1765 01ea 0600      		.word	0x6
 1766 01ec 6C        		.byte	0x6c
 1767 01ed 93        		.byte	0x93
 1768 01ee 01        		.uleb128 0x1
 1769 01ef 6D        		.byte	0x6d
 1770 01f0 93        		.byte	0x93
 1771 01f1 01        		.uleb128 0x1
 1772 01f2 F400 0000 		.long	.LVL33-.Ltext0
 1773 01f6 0601 0000 		.long	.LVL34-.Ltext0
 1774 01fa 0600      		.word	0x6
 1775 01fc 68        		.byte	0x68
 1776 01fd 93        		.byte	0x93
 1777 01fe 01        		.uleb128 0x1
 1778 01ff 69        		.byte	0x69
 1779 0200 93        		.byte	0x93
 1780 0201 01        		.uleb128 0x1
 1781 0202 0601 0000 		.long	.LVL34-.Ltext0
 1782 0206 2C01 0000 		.long	.LVL39-.Ltext0
 1783 020a 0600      		.word	0x6
 1784 020c 6C        		.byte	0x6c
 1785 020d 93        		.byte	0x93
 1786 020e 01        		.uleb128 0x1
 1787 020f 6D        		.byte	0x6d
 1788 0210 93        		.byte	0x93
 1789 0211 01        		.uleb128 0x1
GAS LISTING /var/folders/86/8ymzt0g934z5dpmztl89nd000000gn/T//cchcDLWH.s 			page 34


 1790 0212 2C01 0000 		.long	.LVL39-.Ltext0
 1791 0216 3101 0000 		.long	.LVL41-1-.Ltext0
 1792 021a 0600      		.word	0x6
 1793 021c 68        		.byte	0x68
 1794 021d 93        		.byte	0x93
 1795 021e 01        		.uleb128 0x1
 1796 021f 69        		.byte	0x69
 1797 0220 93        		.byte	0x93
 1798 0221 01        		.uleb128 0x1
 1799 0222 3101 0000 		.long	.LVL41-1-.Ltext0
 1800 0226 3201 0000 		.long	.LFE10-.Ltext0
 1801 022a 0400      		.word	0x4
 1802 022c F3        		.byte	0xf3
 1803 022d 01        		.uleb128 0x1
 1804 022e 68        		.byte	0x68
 1805 022f 9F        		.byte	0x9f
 1806 0230 0000 0000 		.long	0
 1807 0234 0000 0000 		.long	0
 1808               	.LLST9:
 1809 0238 BC00 0000 		.long	.LVL23-.Ltext0
 1810 023c D400 0000 		.long	.LVL26-.Ltext0
 1811 0240 0100      		.word	0x1
 1812 0242 66        		.byte	0x66
 1813 0243 D400 0000 		.long	.LVL26-.Ltext0
 1814 0247 F400 0000 		.long	.LVL33-.Ltext0
 1815 024b 0400      		.word	0x4
 1816 024d F3        		.byte	0xf3
 1817 024e 01        		.uleb128 0x1
 1818 024f 66        		.byte	0x66
 1819 0250 9F        		.byte	0x9f
 1820 0251 F400 0000 		.long	.LVL33-.Ltext0
 1821 0255 0A01 0000 		.long	.LVL35-.Ltext0
 1822 0259 0100      		.word	0x1
 1823 025b 66        		.byte	0x66
 1824 025c 0A01 0000 		.long	.LVL35-.Ltext0
 1825 0260 3201 0000 		.long	.LFE10-.Ltext0
 1826 0264 0400      		.word	0x4
 1827 0266 F3        		.byte	0xf3
 1828 0267 01        		.uleb128 0x1
 1829 0268 66        		.byte	0x66
 1830 0269 9F        		.byte	0x9f
 1831 026a 0000 0000 		.long	0
 1832 026e 0000 0000 		.long	0
 1833               	.LLST10:
 1834 0272 C600 0000 		.long	.LVL24-.Ltext0
 1835 0276 F200 0000 		.long	.LVL32-.Ltext0
 1836 027a 0100      		.word	0x1
 1837 027c 61        		.byte	0x61
 1838 027d F200 0000 		.long	.LVL32-.Ltext0
 1839 0281 F400 0000 		.long	.LVL33-.Ltext0
 1840 0285 0100      		.word	0x1
 1841 0287 66        		.byte	0x66
 1842 0288 F400 0000 		.long	.LVL33-.Ltext0
 1843 028c 2201 0000 		.long	.LVL38-.Ltext0
 1844 0290 0100      		.word	0x1
 1845 0292 61        		.byte	0x61
 1846 0293 2201 0000 		.long	.LVL38-.Ltext0
GAS LISTING /var/folders/86/8ymzt0g934z5dpmztl89nd000000gn/T//cchcDLWH.s 			page 35


 1847 0297 3101 0000 		.long	.LVL41-1-.Ltext0
 1848 029b 0100      		.word	0x1
 1849 029d 66        		.byte	0x66
 1850 029e 0000 0000 		.long	0
 1851 02a2 0000 0000 		.long	0
 1852               	.LLST11:
 1853 02a6 C600 0000 		.long	.LVL24-.Ltext0
 1854 02aa EE00 0000 		.long	.LVL30-.Ltext0
 1855 02ae 0100      		.word	0x1
 1856 02b0 61        		.byte	0x61
 1857 02b1 EE00 0000 		.long	.LVL30-.Ltext0
 1858 02b5 F000 0000 		.long	.LVL31-.Ltext0
 1859 02b9 0100      		.word	0x1
 1860 02bb 66        		.byte	0x66
 1861 02bc F000 0000 		.long	.LVL31-.Ltext0
 1862 02c0 F400 0000 		.long	.LVL33-.Ltext0
 1863 02c4 0100      		.word	0x1
 1864 02c6 68        		.byte	0x68
 1865 02c7 F400 0000 		.long	.LVL33-.Ltext0
 1866 02cb 2E01 0000 		.long	.LVL40-.Ltext0
 1867 02cf 0100      		.word	0x1
 1868 02d1 61        		.byte	0x61
 1869 02d2 2E01 0000 		.long	.LVL40-.Ltext0
 1870 02d6 3101 0000 		.long	.LVL41-1-.Ltext0
 1871 02da 0100      		.word	0x1
 1872 02dc 64        		.byte	0x64
 1873 02dd 0000 0000 		.long	0
 1874 02e1 0000 0000 		.long	0
 1875               	.LLST12:
 1876 02e5 3201 0000 		.long	.LVL42-.Ltext0
 1877 02e9 3B01 0000 		.long	.LVL43-1-.Ltext0
 1878 02ed 0600      		.word	0x6
 1879 02ef 68        		.byte	0x68
 1880 02f0 93        		.byte	0x93
 1881 02f1 01        		.uleb128 0x1
 1882 02f2 69        		.byte	0x69
 1883 02f3 93        		.byte	0x93
 1884 02f4 01        		.uleb128 0x1
 1885 02f5 3B01 0000 		.long	.LVL43-1-.Ltext0
 1886 02f9 3C01 0000 		.long	.LFE12-.Ltext0
 1887 02fd 0400      		.word	0x4
 1888 02ff F3        		.byte	0xf3
 1889 0300 01        		.uleb128 0x1
 1890 0301 68        		.byte	0x68
 1891 0302 9F        		.byte	0x9f
 1892 0303 0000 0000 		.long	0
 1893 0307 0000 0000 		.long	0
 1894               	.LLST13:
 1895 030b 3C01 0000 		.long	.LFB11-.Ltext0
 1896 030f 3E01 0000 		.long	.LCFI6-.Ltext0
 1897 0313 0300      		.word	0x3
 1898 0315 92        		.byte	0x92
 1899 0316 20        		.uleb128 0x20
 1900 0317 02        		.sleb128 2
 1901 0318 3E01 0000 		.long	.LCFI6-.Ltext0
 1902 031c 4001 0000 		.long	.LCFI7-.Ltext0
 1903 0320 0300      		.word	0x3
GAS LISTING /var/folders/86/8ymzt0g934z5dpmztl89nd000000gn/T//cchcDLWH.s 			page 36


 1904 0322 92        		.byte	0x92
 1905 0323 20        		.uleb128 0x20
 1906 0324 03        		.sleb128 3
 1907 0325 4001 0000 		.long	.LCFI7-.Ltext0
 1908 0329 4201 0000 		.long	.LCFI8-.Ltext0
 1909 032d 0300      		.word	0x3
 1910 032f 92        		.byte	0x92
 1911 0330 20        		.uleb128 0x20
 1912 0331 04        		.sleb128 4
 1913 0332 4201 0000 		.long	.LCFI8-.Ltext0
 1914 0336 7601 0000 		.long	.LFE11-.Ltext0
 1915 033a 0300      		.word	0x3
 1916 033c 92        		.byte	0x92
 1917 033d 20        		.uleb128 0x20
 1918 033e 05        		.sleb128 5
 1919 033f 0000 0000 		.long	0
 1920 0343 0000 0000 		.long	0
 1921               	.LLST14:
 1922 0347 3C01 0000 		.long	.LVL44-.Ltext0
 1923 034b 5601 0000 		.long	.LVL46-.Ltext0
 1924 034f 0600      		.word	0x6
 1925 0351 68        		.byte	0x68
 1926 0352 93        		.byte	0x93
 1927 0353 01        		.uleb128 0x1
 1928 0354 69        		.byte	0x69
 1929 0355 93        		.byte	0x93
 1930 0356 01        		.uleb128 0x1
 1931 0357 5601 0000 		.long	.LVL46-.Ltext0
 1932 035b 7001 0000 		.long	.LVL49-.Ltext0
 1933 035f 0600      		.word	0x6
 1934 0361 6C        		.byte	0x6c
 1935 0362 93        		.byte	0x93
 1936 0363 01        		.uleb128 0x1
 1937 0364 6D        		.byte	0x6d
 1938 0365 93        		.byte	0x93
 1939 0366 01        		.uleb128 0x1
 1940 0367 7001 0000 		.long	.LVL49-.Ltext0
 1941 036b 7501 0000 		.long	.LVL51-1-.Ltext0
 1942 036f 0600      		.word	0x6
 1943 0371 68        		.byte	0x68
 1944 0372 93        		.byte	0x93
 1945 0373 01        		.uleb128 0x1
 1946 0374 69        		.byte	0x69
 1947 0375 93        		.byte	0x93
 1948 0376 01        		.uleb128 0x1
 1949 0377 7501 0000 		.long	.LVL51-1-.Ltext0
 1950 037b 7601 0000 		.long	.LFE11-.Ltext0
 1951 037f 0400      		.word	0x4
 1952 0381 F3        		.byte	0xf3
 1953 0382 01        		.uleb128 0x1
 1954 0383 68        		.byte	0x68
 1955 0384 9F        		.byte	0x9f
 1956 0385 0000 0000 		.long	0
 1957 0389 0000 0000 		.long	0
 1958               	.LLST15:
 1959 038d 3C01 0000 		.long	.LVL44-.Ltext0
 1960 0391 4801 0000 		.long	.LVL45-.Ltext0
GAS LISTING /var/folders/86/8ymzt0g934z5dpmztl89nd000000gn/T//cchcDLWH.s 			page 37


 1961 0395 0100      		.word	0x1
 1962 0397 66        		.byte	0x66
 1963 0398 4801 0000 		.long	.LVL45-.Ltext0
 1964 039c 7201 0000 		.long	.LVL50-.Ltext0
 1965 03a0 0100      		.word	0x1
 1966 03a2 61        		.byte	0x61
 1967 03a3 7201 0000 		.long	.LVL50-.Ltext0
 1968 03a7 7601 0000 		.long	.LFE11-.Ltext0
 1969 03ab 0400      		.word	0x4
 1970 03ad F3        		.byte	0xf3
 1971 03ae 01        		.uleb128 0x1
 1972 03af 66        		.byte	0x66
 1973 03b0 9F        		.byte	0x9f
 1974 03b1 0000 0000 		.long	0
 1975 03b5 0000 0000 		.long	0
 1976               		.section	.debug_aranges,"",@progbits
 1977 0000 1C00 0000 		.long	0x1c
 1978 0004 0200      		.word	0x2
 1979 0006 0000 0000 		.long	.Ldebug_info0
 1980 000a 04        		.byte	0x4
 1981 000b 00        		.byte	0
 1982 000c 0000      		.word	0
 1983 000e 0000      		.word	0
 1984 0010 0000 0000 		.long	.Ltext0
 1985 0014 7601 0000 		.long	.Letext0-.Ltext0
 1986 0018 0000 0000 		.long	0
 1987 001c 0000 0000 		.long	0
 1988               		.section	.debug_ranges,"",@progbits
 1989               	.Ldebug_ranges0:
 1990 0000 4E00 0000 		.long	.LBB3-.Ltext0
 1991 0004 B200 0000 		.long	.LBE3-.Ltext0
 1992 0008 B800 0000 		.long	.LBB4-.Ltext0
 1993 000c BC00 0000 		.long	.LBE4-.Ltext0
 1994 0010 0000 0000 		.long	0
 1995 0014 0000 0000 		.long	0
 1996 0018 C400 0000 		.long	.LBB5-.Ltext0
 1997 001c 2801 0000 		.long	.LBE5-.Ltext0
 1998 0020 2E01 0000 		.long	.LBB6-.Ltext0
 1999 0024 3201 0000 		.long	.LBE6-.Ltext0
 2000 0028 0000 0000 		.long	0
 2001 002c 0000 0000 		.long	0
 2002               		.section	.debug_line,"",@progbits
 2003               	.Ldebug_line0:
 2004 0000 BF00 0000 		.section	.debug_str,"MS",@progbits,1
 2004      0200 7B00 
 2004      0000 0201 
 2004      FB0E 0A00 
 2004      0101 0101 
 2005               	.LASF16:
 2006 0000 5F5A 4E37 		.string	"_ZN7Utility19initialisationUSARTEv"
 2006      5574 696C 
 2006      6974 7931 
 2006      3969 6E69 
 2006      7469 616C 
 2007               	.LASF21:
 2008 0023 7573 6172 		.string	"usart_receive"
 2008      745F 7265 
GAS LISTING /var/folders/86/8ymzt0g934z5dpmztl89nd000000gn/T//cchcDLWH.s 			page 38


 2008      6365 6976 
 2008      6500 
 2009               	.LASF12:
 2010 0031 5F5A 4E37 		.string	"_ZN7Utility16button2IsPressedEv"
 2010      5574 696C 
 2010      6974 7931 
 2010      3662 7574 
 2010      746F 6E32 
 2011               	.LASF50:
 2012 0051 6D6F 7465 		.string	"moteur.cpp"
 2012      7572 2E63 
 2012      7070 00
 2013               	.LASF35:
 2014 005c 5F5A 4E36 		.string	"_ZN6Moteur7arreterEv"
 2014      4D6F 7465 
 2014      7572 3761 
 2014      7272 6574 
 2014      6572 4576 
 2015               	.LASF27:
 2016 0071 5649 5445 		.string	"VITESSE_ROTATION"
 2016      5353 455F 
 2016      524F 5441 
 2016      5449 4F4E 
 2016      00
 2017               	.LASF23:
 2018 0082 626F 6F6C 		.string	"bool"
 2018      00
 2019               	.LASF26:
 2020 0087 5649 5445 		.string	"VITESSE"
 2020      5353 4500 
 2021               	.LASF19:
 2022 008f 5553 4152 		.string	"USART_Flush"
 2022      545F 466C 
 2022      7573 6800 
 2023               	.LASF49:
 2024 009b 474E 5520 		.string	"GNU C++ 4.8.1 -mmcu=atmega324pa -g -Os -std=c++98 -fpack-struct -fshort-enums -funsigned-
 2024      432B 2B20 
 2024      342E 382E 
 2024      3120 2D6D 
 2024      6D63 753D 
 2025               	.LASF15:
 2026 013e 5F5A 4E37 		.string	"_ZN7Utility26initialisationInterruptionEv"
 2026      5574 696C 
 2026      6974 7932 
 2026      3669 6E69 
 2026      7469 616C 
 2027               	.LASF43:
 2028 0168 6469 7265 		.string	"direction"
 2028      6374 696F 
 2028      6E00 
 2029               	.LASF41:
 2030 0172 6475 7265 		.string	"dureeA"
 2030      6541 00
 2031               	.LASF42:
 2032 0179 6475 7265 		.string	"dureeB"
 2032      6542 00
 2033               	.LASF52:
GAS LISTING /var/folders/86/8ymzt0g934z5dpmztl89nd000000gn/T//cchcDLWH.s 			page 39


 2034 0180 6465 6C61 		.string	"delay"
 2034      7900 
 2035               	.LASF18:
 2036 0186 5F5A 4E37 		.string	"_ZN7Utility17transmissionUSARTEh"
 2036      5574 696C 
 2036      6974 7931 
 2036      3774 7261 
 2036      6E73 6D69 
 2037               	.LASF1:
 2038 01a7 756E 7369 		.string	"unsigned char"
 2038      676E 6564 
 2038      2063 6861 
 2038      7200 
 2039               	.LASF40:
 2040 01b5 7468 6973 		.string	"this"
 2040      00
 2041               	.LASF9:
 2042 01ba 6275 7474 		.string	"button1IsPressed"
 2042      6F6E 3149 
 2042      7350 7265 
 2042      7373 6564 
 2042      00
 2043               	.LASF17:
 2044 01cb 7472 616E 		.string	"transmissionUSART"
 2044      736D 6973 
 2044      7369 6F6E 
 2044      5553 4152 
 2044      5400 
 2045               	.LASF29:
 2046 01dd 5F5A 4E36 		.string	"_ZN6Moteur7avancerEh"
 2046      4D6F 7465 
 2046      7572 3761 
 2046      7661 6E63 
 2046      6572 4568 
 2047               	.LASF37:
 2048 01f2 5F5A 4E36 		.string	"_ZN6Moteur16ajustementTimer1Ehhh"
 2048      4D6F 7465 
 2048      7572 3136 
 2048      616A 7573 
 2048      7465 6D65 
 2049               	.LASF6:
 2050 0213 6C6F 6E67 		.string	"long unsigned int"
 2050      2075 6E73 
 2050      6967 6E65 
 2050      6420 696E 
 2050      7400 
 2051               	.LASF20:
 2052 0225 5F5A 4E37 		.string	"_ZN7Utility11USART_FlushEv"
 2052      5574 696C 
 2052      6974 7931 
 2052      3155 5341 
 2052      5254 5F46 
 2053               	.LASF34:
 2054 0240 6172 7265 		.string	"arreter"
 2054      7465 7200 
 2055               	.LASF24:
 2056 0248 5574 696C 		.string	"Utility"
GAS LISTING /var/folders/86/8ymzt0g934z5dpmztl89nd000000gn/T//cchcDLWH.s 			page 40


 2056      6974 7900 
 2057               	.LASF10:
 2058 0250 6275 7474 		.string	"button2IsPressed"
 2058      6F6E 3249 
 2058      7350 7265 
 2058      7373 6564 
 2058      00
 2059               	.LASF22:
 2060 0261 5F5A 4E37 		.string	"_ZN7Utility13usart_receiveEv"
 2060      5574 696C 
 2060      6974 7931 
 2060      3375 7361 
 2060      7274 5F72 
 2061               	.LASF48:
 2062 027e 646F 7562 		.string	"double"
 2062      6C65 00
 2063               	.LASF51:
 2064 0285 2F55 7365 		.string	"/Users/Esteban/dev/robot-poly/lib_dir"
 2064      7273 2F45 
 2064      7374 6562 
 2064      616E 2F64 
 2064      6576 2F72 
 2065               	.LASF36:
 2066 02ab 616A 7573 		.string	"ajustementTimer1"
 2066      7465 6D65 
 2066      6E74 5469 
 2066      6D65 7231 
 2066      00
 2067               	.LASF39:
 2068 02bc 7669 7465 		.string	"vitesseRotation"
 2068      7373 6552 
 2068      6F74 6174 
 2068      696F 6E00 
 2069               	.LASF47:
 2070 02cc 726F 756E 		.string	"round"
 2070      6400 
 2071               	.LASF32:
 2072 02d2 746F 7572 		.string	"tourner"
 2072      6E65 7200 
 2073               	.LASF28:
 2074 02da 6176 616E 		.string	"avancer"
 2074      6365 7200 
 2075               	.LASF4:
 2076 02e2 756E 7369 		.string	"unsigned int"
 2076      676E 6564 
 2076      2069 6E74 
 2076      00
 2077               	.LASF8:
 2078 02ef 6C6F 6E67 		.string	"long long unsigned int"
 2078      206C 6F6E 
 2078      6720 756E 
 2078      7369 676E 
 2078      6564 2069 
 2079               	.LASF2:
 2080 0306 7569 6E74 		.string	"uint8_t"
 2080      385F 7400 
 2081               	.LASF11:
GAS LISTING /var/folders/86/8ymzt0g934z5dpmztl89nd000000gn/T//cchcDLWH.s 			page 41


 2082 030e 5F5A 4E37 		.string	"_ZN7Utility16button1IsPressedEv"
 2082      5574 696C 
 2082      6974 7931 
 2082      3662 7574 
 2082      746F 6E31 
 2083               	.LASF13:
 2084 032e 696E 6974 		.string	"initialisationInterruption"
 2084      6961 6C69 
 2084      7361 7469 
 2084      6F6E 496E 
 2084      7465 7272 
 2085               	.LASF54:
 2086 0349 5F5A 4E36 		.string	"_ZN6MoteurC2Ehh"
 2086      4D6F 7465 
 2086      7572 4332 
 2086      4568 6800 
 2087               	.LASF31:
 2088 0359 5F5A 4E36 		.string	"_ZN6Moteur7reculerEh"
 2088      4D6F 7465 
 2088      7572 3772 
 2088      6563 756C 
 2088      6572 4568 
 2089               	.LASF7:
 2090 036e 6C6F 6E67 		.string	"long long int"
 2090      206C 6F6E 
 2090      6720 696E 
 2090      7400 
 2091               	.LASF30:
 2092 037c 7265 6375 		.string	"reculer"
 2092      6C65 7200 
 2093               	.LASF33:
 2094 0384 5F5A 4E36 		.string	"_ZN6Moteur7tournerEh"
 2094      4D6F 7465 
 2094      7572 3774 
 2094      6F75 726E 
 2094      6572 4568 
 2095               	.LASF53:
 2096 0399 5F5A 4E37 		.string	"_ZN7Utility5delayEj"
 2096      5574 696C 
 2096      6974 7935 
 2096      6465 6C61 
 2096      7945 6A00 
 2097               	.LASF14:
 2098 03ad 696E 6974 		.string	"initialisationUSART"
 2098      6961 6C69 
 2098      7361 7469 
 2098      6F6E 5553 
 2098      4152 5400 
 2099               	.LASF3:
 2100 03c1 7569 6E74 		.string	"uint16_t"
 2100      3136 5F74 
 2100      00
 2101               	.LASF38:
 2102 03ca 7669 7465 		.string	"vitesse"
 2102      7373 6500 
 2103               	.LASF25:
 2104 03d2 4D6F 7465 		.string	"Moteur"
GAS LISTING /var/folders/86/8ymzt0g934z5dpmztl89nd000000gn/T//cchcDLWH.s 			page 42


 2104      7572 00
 2105               	.LASF5:
 2106 03d9 6C6F 6E67 		.string	"long int"
 2106      2069 6E74 
 2106      00
 2107               	.LASF46:
 2108 03e2 6465 6772 		.string	"degree"
 2108      6565 00
 2109               	.LASF0:
 2110 03e9 7369 676E 		.string	"signed char"
 2110      6564 2063 
 2110      6861 7200 
 2111               	.LASF44:
 2112 03f5 7669 7465 		.string	"vitesseA"
 2112      7373 6541 
 2112      00
 2113               	.LASF45:
 2114 03fe 7669 7465 		.string	"vitesseB"
 2114      7373 6542 
 2114      00
 2115               		.ident	"GCC: (GNU) 4.8.1"
GAS LISTING /var/folders/86/8ymzt0g934z5dpmztl89nd000000gn/T//cchcDLWH.s 			page 43


DEFINED SYMBOLS
                            *ABS*:00000000 moteur.cpp
/var/folders/86/8ymzt0g934z5dpmztl89nd000000gn/T//cchcDLWH.s:2      *ABS*:0000003e __SP_H__
/var/folders/86/8ymzt0g934z5dpmztl89nd000000gn/T//cchcDLWH.s:3      *ABS*:0000003d __SP_L__
/var/folders/86/8ymzt0g934z5dpmztl89nd000000gn/T//cchcDLWH.s:4      *ABS*:0000003f __SREG__
/var/folders/86/8ymzt0g934z5dpmztl89nd000000gn/T//cchcDLWH.s:5      *ABS*:00000000 __tmp_reg__
/var/folders/86/8ymzt0g934z5dpmztl89nd000000gn/T//cchcDLWH.s:6      *ABS*:00000001 __zero_reg__
/var/folders/86/8ymzt0g934z5dpmztl89nd000000gn/T//cchcDLWH.s:12     .text:00000000 _ZN6MoteurC2Ehh
/var/folders/86/8ymzt0g934z5dpmztl89nd000000gn/T//cchcDLWH.s:12     .text:00000000 _ZN6MoteurC1Ehh
/var/folders/86/8ymzt0g934z5dpmztl89nd000000gn/T//cchcDLWH.s:36     .text:00000008 _ZN6Moteur16ajustementTimer1Ehhh
/var/folders/86/8ymzt0g934z5dpmztl89nd000000gn/T//cchcDLWH.s:86     .text:00000046 _ZN6Moteur7avancerEh
/var/folders/86/8ymzt0g934z5dpmztl89nd000000gn/T//cchcDLWH.s:193    .text:000000bc _ZN6Moteur7reculerEh
/var/folders/86/8ymzt0g934z5dpmztl89nd000000gn/T//cchcDLWH.s:300    .text:00000132 _ZN6Moteur7arreterEv
/var/folders/86/8ymzt0g934z5dpmztl89nd000000gn/T//cchcDLWH.s:320    .text:0000013c _ZN6Moteur7tournerEh

UNDEFINED SYMBOLS
__floatsisf
__fixunssfsi
__divmodhi4
round
_ZN7Utility5delayEj
