GAS LISTING /var/folders/86/8ymzt0g934z5dpmztl89nd000000gn/T//cchcDLWH.s 			page 1


   1               		.file	"moteur.cpp"
   2               	__SP_H__ = 0x3e
   3               	__SP_L__ = 0x3d
   4               	__SREG__ = 0x3f
   5               	__tmp_reg__ = 0
   6               	__zero_reg__ = 1
   7               		.text
   8               	.Ltext0:
   9               		.cfi_sections	.debug_frame
  10               	.global	_ZN6MoteurC2Ehh
  11               		.type	_ZN6MoteurC2Ehh, @function
  12               	_ZN6MoteurC2Ehh:
  13               	.LFB7:
  14               		.file 1 "moteur.cpp"
   1:moteur.cpp    **** #include "moteur.h"
   2:moteur.cpp    **** 
   3:moteur.cpp    **** Moteur::Moteur(uint8_t vitesse, uint8_t vitesseRotation) : VITESSE(vitesse), VITESSE_ROTATION(vites
  15               		.loc 1 3 0
  16               		.cfi_startproc
  17               	.LVL0:
  18               	/* prologue: function */
  19               	/* frame size = 0 */
  20               	/* stack size = 0 */
  21               	.L__stack_usage = 0
  22               	.LBB2:
  23               		.loc 1 3 0
  24 0000 FC01      		movw r30,r24
  25 0002 6083      		st Z,r22
  26 0004 4183      		std Z+1,r20
  27 0006 0895      		ret
  28               	.LBE2:
  29               		.cfi_endproc
  30               	.LFE7:
  31               		.size	_ZN6MoteurC2Ehh, .-_ZN6MoteurC2Ehh
  32               	.global	_ZN6MoteurC1Ehh
  33               		.set	_ZN6MoteurC1Ehh,_ZN6MoteurC2Ehh
  34               	.global	_ZN6Moteur16ajustementTimer1Ehhh
  35               		.type	_ZN6Moteur16ajustementTimer1Ehhh, @function
  36               	_ZN6Moteur16ajustementTimer1Ehhh:
  37               	.LFB13:
   4:moteur.cpp    **** 
   5:moteur.cpp    **** }
   6:moteur.cpp    **** 
   7:moteur.cpp    **** void Moteur::avancer(uint8_t direction) {
   8:moteur.cpp    **** 	//Calculer vitesse de chaque roue
   9:moteur.cpp    **** 	uint8_t vitesseA = VITESSE;
  10:moteur.cpp    **** 	uint8_t vitesseB = VITESSE;
  11:moteur.cpp    **** 	if (direction <= 90) {
  12:moteur.cpp    **** 		vitesseB = round(VITESSE * direction / 90);
  13:moteur.cpp    **** 	}
  14:moteur.cpp    **** 	else {
  15:moteur.cpp    **** 		vitesseA = round(VITESSE * (180 - direction) / 90);
  16:moteur.cpp    **** 	}
  17:moteur.cpp    **** 
  18:moteur.cpp    **** 	//Ajuster PWM
  19:moteur.cpp    **** 	ajustementTimer1(vitesseA, vitesseB, 0x00);
  20:moteur.cpp    **** }
GAS LISTING /var/folders/86/8ymzt0g934z5dpmztl89nd000000gn/T//cchcDLWH.s 			page 2


  21:moteur.cpp    **** 
  22:moteur.cpp    **** void Moteur::reculer(uint8_t direction) {
  23:moteur.cpp    **** 	//Calculer vitesse de chaque roue
  24:moteur.cpp    **** 	uint8_t vitesseA = VITESSE;
  25:moteur.cpp    **** 	uint8_t vitesseB = VITESSE;
  26:moteur.cpp    **** 	if (direction <= 90) {
  27:moteur.cpp    **** 		vitesseB = round(VITESSE * direction / 90);
  28:moteur.cpp    **** 	}
  29:moteur.cpp    **** 	else {
  30:moteur.cpp    **** 		vitesseA = round(VITESSE * (180 - direction) / 90);
  31:moteur.cpp    **** 	}
  32:moteur.cpp    **** 
  33:moteur.cpp    **** 	//Ajuster PWM
  34:moteur.cpp    **** 	ajustementTimer1(vitesseA, vitesseB, 0x03);
  35:moteur.cpp    **** }
  36:moteur.cpp    **** 
  37:moteur.cpp    **** void Moteur::tourner(uint8_t degree) {
  38:moteur.cpp    **** 	//Tourner
  39:moteur.cpp    **** 	if (degree > 0){
  40:moteur.cpp    **** 		ajustementTimer1(VITESSE_ROTATION,VITESSE_ROTATION,0x02); //Droite
  41:moteur.cpp    **** 	}
  42:moteur.cpp    **** 	else {
  43:moteur.cpp    **** 		ajustementTimer1(VITESSE_ROTATION,VITESSE_ROTATION,0x01); //Gauche
  44:moteur.cpp    **** 	}
  45:moteur.cpp    ****   	Utility::delay(degree * 10 + 100);
  46:moteur.cpp    **** 
  47:moteur.cpp    **** 	//Terminer tournant
  48:moteur.cpp    **** 	arreter();
  49:moteur.cpp    **** }
  50:moteur.cpp    **** 
  51:moteur.cpp    **** void Moteur::arreter() {
  52:moteur.cpp    **** 	ajustementTimer1(0,0,0x00);
  53:moteur.cpp    **** }
  54:moteur.cpp    **** 
  55:moteur.cpp    **** void Moteur::ajustementTimer1( uint8_t dureeA, uint8_t dureeB, uint8_t direction)
  56:moteur.cpp    **** {
  38               		.loc 1 56 0
  39               		.cfi_startproc
  40               	.LVL1:
  41               	/* prologue: function */
  42               	/* frame size = 0 */
  43               	/* stack size = 0 */
  44               	.L__stack_usage = 0
  57:moteur.cpp    ****   TCCR1A |= (1 << WGM10) | (1 << COM1A1)|(1 << COM1B1) ;
  45               		.loc 1 57 0
  46 0008 E0E8      		ldi r30,lo8(-128)
  47 000a F0E0      		ldi r31,0
  48 000c 8081      		ld r24,Z
  49               	.LVL2:
  50 000e 816A      		ori r24,lo8(-95)
  51 0010 8083      		st Z,r24
  58:moteur.cpp    ****   TCCR1B |= (1<< CS11) ;
  52               		.loc 1 58 0
  53 0012 E1E8      		ldi r30,lo8(-127)
  54 0014 F0E0      		ldi r31,0
  55 0016 8081      		ld r24,Z
  56 0018 8260      		ori r24,lo8(2)
GAS LISTING /var/folders/86/8ymzt0g934z5dpmztl89nd000000gn/T//cchcDLWH.s 			page 3


  57 001a 8083      		st Z,r24
  59:moteur.cpp    ****   OCR1A = dureeA ; OCR1B = dureeB;
  58               		.loc 1 59 0
  59 001c 70E0      		ldi r23,0
  60 001e 7093 8900 		sts 136+1,r23
  61 0022 6093 8800 		sts 136,r22
  62 0026 50E0      		ldi r21,0
  63 0028 5093 8B00 		sts 138+1,r21
  64 002c 4093 8A00 		sts 138,r20
  60:moteur.cpp    **** 
  61:moteur.cpp    ****   PORTD &= 0x3F; //Reinitialiser la direction
  65               		.loc 1 61 0
  66 0030 8BB1      		in r24,0xb
  67 0032 8F73      		andi r24,lo8(63)
  68 0034 8BB9      		out 0xb,r24
  62:moteur.cpp    ****   PORTD |= direction << 6; //Nouvelle direction
  69               		.loc 1 62 0
  70 0036 8BB1      		in r24,0xb
  71 0038 90E4      		ldi r25,lo8(64)
  72 003a 299F      		mul r18,r25
  73 003c 9001      		movw r18,r0
  74 003e 1124      		clr __zero_reg__
  75               	.LVL3:
  76 0040 822B      		or r24,r18
  77 0042 8BB9      		out 0xb,r24
  78 0044 0895      		ret
  79               		.cfi_endproc
  80               	.LFE13:
  81               		.size	_ZN6Moteur16ajustementTimer1Ehhh, .-_ZN6Moteur16ajustementTimer1Ehhh
  82               	.global	__floatsisf
  83               	.global	__fixunssfsi
  84               	.global	_ZN6Moteur7avancerEh
  85               		.type	_ZN6Moteur7avancerEh, @function
  86               	_ZN6Moteur7avancerEh:
  87               	.LFB9:
   7:moteur.cpp    **** void Moteur::avancer(uint8_t direction) {
  88               		.loc 1 7 0
  89               		.cfi_startproc
  90               	.LVL4:
  91 0046 1F93      		push r17
  92               	.LCFI0:
  93               		.cfi_def_cfa_offset 3
  94               		.cfi_offset 17, -2
  95 0048 CF93      		push r28
  96               	.LCFI1:
  97               		.cfi_def_cfa_offset 4
  98               		.cfi_offset 28, -3
  99 004a DF93      		push r29
 100               	.LCFI2:
 101               		.cfi_def_cfa_offset 5
 102               		.cfi_offset 29, -4
 103               	/* prologue: function */
 104               	/* frame size = 0 */
 105               	/* stack size = 3 */
 106               	.L__stack_usage = 3
 107 004c EC01      		movw r28,r24
 108               	.LBB3:
GAS LISTING /var/folders/86/8ymzt0g934z5dpmztl89nd000000gn/T//cchcDLWH.s 			page 4


   9:moteur.cpp    **** 	uint8_t vitesseA = VITESSE;
 109               		.loc 1 9 0
 110 004e 1881      		ld r17,Y
 111               	.LVL5:
  11:moteur.cpp    **** 	if (direction <= 90) {
 112               		.loc 1 11 0
 113 0050 6B35      		cpi r22,lo8(91)
 114 0052 00F4      		brsh .L4
  12:moteur.cpp    **** 		vitesseB = round(VITESSE * direction / 90);
 115               		.loc 1 12 0
 116 0054 169F      		mul r17,r22
 117 0056 C001      		movw r24,r0
 118 0058 1124      		clr __zero_reg__
 119               	.LVL6:
 120 005a 6AE5      		ldi r22,lo8(90)
 121 005c 70E0      		ldi r23,0
 122               	.LVL7:
 123 005e 0E94 0000 		call __divmodhi4
 124 0062 8827      		clr r24
 125 0064 77FD      		sbrc r23,7
 126 0066 8095      		com r24
 127 0068 982F      		mov r25,r24
 128 006a 0E94 0000 		call __floatsisf
 129               	.LVL8:
 130 006e 0E94 0000 		call round
 131               	.LVL9:
 132 0072 0E94 0000 		call __fixunssfsi
 133               	.LVL10:
 134 0076 862F      		mov r24,r22
 135               	.LVL11:
   9:moteur.cpp    **** 	uint8_t vitesseA = VITESSE;
 136               		.loc 1 9 0
 137 0078 612F      		mov r22,r17
 138               	.LVL12:
  12:moteur.cpp    **** 		vitesseB = round(VITESSE * direction / 90);
 139               		.loc 1 12 0
 140 007a 182F      		mov r17,r24
 141               	.LVL13:
 142 007c 00C0      		rjmp .L5
 143               	.LVL14:
 144               	.L4:
  15:moteur.cpp    **** 		vitesseA = round(VITESSE * (180 - direction) / 90);
 145               		.loc 1 15 0
 146 007e 24EB      		ldi r18,lo8(-76)
 147 0080 30E0      		ldi r19,0
 148 0082 261B      		sub r18,r22
 149 0084 3109      		sbc r19,__zero_reg__
 150 0086 129F      		mul r17,r18
 151 0088 C001      		movw r24,r0
 152 008a 139F      		mul r17,r19
 153 008c 900D      		add r25,r0
 154 008e 1124      		clr __zero_reg__
 155               	.LVL15:
 156 0090 6AE5      		ldi r22,lo8(90)
 157 0092 70E0      		ldi r23,0
 158               	.LVL16:
 159 0094 0E94 0000 		call __divmodhi4
GAS LISTING /var/folders/86/8ymzt0g934z5dpmztl89nd000000gn/T//cchcDLWH.s 			page 5


 160 0098 8827      		clr r24
 161 009a 77FD      		sbrc r23,7
 162 009c 8095      		com r24
 163 009e 982F      		mov r25,r24
 164 00a0 0E94 0000 		call __floatsisf
 165               	.LVL17:
 166 00a4 0E94 0000 		call round
 167               	.LVL18:
 168 00a8 0E94 0000 		call __fixunssfsi
 169               	.LVL19:
 170               	.L5:
  19:moteur.cpp    **** 	ajustementTimer1(vitesseA, vitesseB, 0x00);
 171               		.loc 1 19 0
 172 00ac 20E0      		ldi r18,0
 173 00ae 412F      		mov r20,r17
 174 00b0 CE01      		movw r24,r28
 175               	/* epilogue start */
 176               	.LBE3:
  20:moteur.cpp    **** }
 177               		.loc 1 20 0
 178 00b2 DF91      		pop r29
 179 00b4 CF91      		pop r28
 180               	.LVL20:
 181 00b6 1F91      		pop r17
 182               	.LVL21:
 183               	.LBB4:
  19:moteur.cpp    **** 	ajustementTimer1(vitesseA, vitesseB, 0x00);
 184               		.loc 1 19 0
 185 00b8 0C94 0000 		jmp _ZN6Moteur16ajustementTimer1Ehhh
 186               	.LVL22:
 187               	.LBE4:
 188               		.cfi_endproc
 189               	.LFE9:
 190               		.size	_ZN6Moteur7avancerEh, .-_ZN6Moteur7avancerEh
 191               	.global	_ZN6Moteur7reculerEh
 192               		.type	_ZN6Moteur7reculerEh, @function
 193               	_ZN6Moteur7reculerEh:
 194               	.LFB10:
  22:moteur.cpp    **** void Moteur::reculer(uint8_t direction) {
 195               		.loc 1 22 0
 196               		.cfi_startproc
 197               	.LVL23:
 198 00bc 1F93      		push r17
 199               	.LCFI3:
 200               		.cfi_def_cfa_offset 3
 201               		.cfi_offset 17, -2
 202 00be CF93      		push r28
 203               	.LCFI4:
 204               		.cfi_def_cfa_offset 4
 205               		.cfi_offset 28, -3
 206 00c0 DF93      		push r29
 207               	.LCFI5:
 208               		.cfi_def_cfa_offset 5
 209               		.cfi_offset 29, -4
 210               	/* prologue: function */
 211               	/* frame size = 0 */
 212               	/* stack size = 3 */
GAS LISTING /var/folders/86/8ymzt0g934z5dpmztl89nd000000gn/T//cchcDLWH.s 			page 6


 213               	.L__stack_usage = 3
 214 00c2 EC01      		movw r28,r24
 215               	.LBB5:
  24:moteur.cpp    **** 	uint8_t vitesseA = VITESSE;
 216               		.loc 1 24 0
 217 00c4 1881      		ld r17,Y
 218               	.LVL24:
  26:moteur.cpp    **** 	if (direction <= 90) {
 219               		.loc 1 26 0
 220 00c6 6B35      		cpi r22,lo8(91)
 221 00c8 00F4      		brsh .L8
  27:moteur.cpp    **** 		vitesseB = round(VITESSE * direction / 90);
 222               		.loc 1 27 0
 223 00ca 169F      		mul r17,r22
 224 00cc C001      		movw r24,r0
 225 00ce 1124      		clr __zero_reg__
 226               	.LVL25:
 227 00d0 6AE5      		ldi r22,lo8(90)
 228 00d2 70E0      		ldi r23,0
 229               	.LVL26:
 230 00d4 0E94 0000 		call __divmodhi4
 231 00d8 8827      		clr r24
 232 00da 77FD      		sbrc r23,7
 233 00dc 8095      		com r24
 234 00de 982F      		mov r25,r24
 235 00e0 0E94 0000 		call __floatsisf
 236               	.LVL27:
 237 00e4 0E94 0000 		call round
 238               	.LVL28:
 239 00e8 0E94 0000 		call __fixunssfsi
 240               	.LVL29:
 241 00ec 862F      		mov r24,r22
 242               	.LVL30:
  24:moteur.cpp    **** 	uint8_t vitesseA = VITESSE;
 243               		.loc 1 24 0
 244 00ee 612F      		mov r22,r17
 245               	.LVL31:
  27:moteur.cpp    **** 		vitesseB = round(VITESSE * direction / 90);
 246               		.loc 1 27 0
 247 00f0 182F      		mov r17,r24
 248               	.LVL32:
 249 00f2 00C0      		rjmp .L9
 250               	.LVL33:
 251               	.L8:
  30:moteur.cpp    **** 		vitesseA = round(VITESSE * (180 - direction) / 90);
 252               		.loc 1 30 0
 253 00f4 24EB      		ldi r18,lo8(-76)
 254 00f6 30E0      		ldi r19,0
 255 00f8 261B      		sub r18,r22
 256 00fa 3109      		sbc r19,__zero_reg__
 257 00fc 129F      		mul r17,r18
 258 00fe C001      		movw r24,r0
 259 0100 139F      		mul r17,r19
 260 0102 900D      		add r25,r0
 261 0104 1124      		clr __zero_reg__
 262               	.LVL34:
 263 0106 6AE5      		ldi r22,lo8(90)
GAS LISTING /var/folders/86/8ymzt0g934z5dpmztl89nd000000gn/T//cchcDLWH.s 			page 7


 264 0108 70E0      		ldi r23,0
 265               	.LVL35:
 266 010a 0E94 0000 		call __divmodhi4
 267 010e 8827      		clr r24
 268 0110 77FD      		sbrc r23,7
 269 0112 8095      		com r24
 270 0114 982F      		mov r25,r24
 271 0116 0E94 0000 		call __floatsisf
 272               	.LVL36:
 273 011a 0E94 0000 		call round
 274               	.LVL37:
 275 011e 0E94 0000 		call __fixunssfsi
 276               	.LVL38:
 277               	.L9:
  34:moteur.cpp    **** 	ajustementTimer1(vitesseA, vitesseB, 0x03);
 278               		.loc 1 34 0
 279 0122 23E0      		ldi r18,lo8(3)
 280 0124 412F      		mov r20,r17
 281 0126 CE01      		movw r24,r28
 282               	/* epilogue start */
 283               	.LBE5:
  35:moteur.cpp    **** }
 284               		.loc 1 35 0
 285 0128 DF91      		pop r29
 286 012a CF91      		pop r28
 287               	.LVL39:
 288 012c 1F91      		pop r17
 289               	.LVL40:
 290               	.LBB6:
  34:moteur.cpp    **** 	ajustementTimer1(vitesseA, vitesseB, 0x03);
 291               		.loc 1 34 0
 292 012e 0C94 0000 		jmp _ZN6Moteur16ajustementTimer1Ehhh
 293               	.LVL41:
 294               	.LBE6:
 295               		.cfi_endproc
 296               	.LFE10:
 297               		.size	_ZN6Moteur7reculerEh, .-_ZN6Moteur7reculerEh
 298               	.global	_ZN6Moteur7arreterEv
 299               		.type	_ZN6Moteur7arreterEv, @function
 300               	_ZN6Moteur7arreterEv:
 301               	.LFB12:
  51:moteur.cpp    **** void Moteur::arreter() {
 302               		.loc 1 51 0
 303               		.cfi_startproc
 304               	.LVL42:
 305               	/* prologue: function */
 306               	/* frame size = 0 */
 307               	/* stack size = 0 */
 308               	.L__stack_usage = 0
  52:moteur.cpp    **** 	ajustementTimer1(0,0,0x00);
 309               		.loc 1 52 0
 310 0132 20E0      		ldi r18,0
 311 0134 40E0      		ldi r20,0
 312 0136 60E0      		ldi r22,0
 313 0138 0C94 0000 		jmp _ZN6Moteur16ajustementTimer1Ehhh
 314               	.LVL43:
 315               		.cfi_endproc
GAS LISTING /var/folders/86/8ymzt0g934z5dpmztl89nd000000gn/T//cchcDLWH.s 			page 8


 316               	.LFE12:
 317               		.size	_ZN6Moteur7arreterEv, .-_ZN6Moteur7arreterEv
 318               	.global	_ZN6Moteur7tournerEh
 319               		.type	_ZN6Moteur7tournerEh, @function
 320               	_ZN6Moteur7tournerEh:
 321               	.LFB11:
  37:moteur.cpp    **** void Moteur::tourner(uint8_t degree) {
 322               		.loc 1 37 0
 323               		.cfi_startproc
 324               	.LVL44:
 325 013c 1F93      		push r17
 326               	.LCFI6:
 327               		.cfi_def_cfa_offset 3
 328               		.cfi_offset 17, -2
 329 013e CF93      		push r28
 330               	.LCFI7:
 331               		.cfi_def_cfa_offset 4
 332               		.cfi_offset 28, -3
 333 0140 DF93      		push r29
 334               	.LCFI8:
 335               		.cfi_def_cfa_offset 5
 336               		.cfi_offset 29, -4
 337               	/* prologue: function */
 338               	/* frame size = 0 */
 339               	/* stack size = 3 */
 340               	.L__stack_usage = 3
 341 0142 EC01      		movw r28,r24
 342 0144 162F      		mov r17,r22
 343 0146 6981      		ldd r22,Y+1
 344               	.LVL45:
  39:moteur.cpp    **** 	if (degree > 0){
 345               		.loc 1 39 0
 346 0148 1123      		tst r17
 347 014a 01F0      		breq .L12
  40:moteur.cpp    **** 		ajustementTimer1(VITESSE_ROTATION,VITESSE_ROTATION,0x02); //Droite
 348               		.loc 1 40 0
 349 014c 22E0      		ldi r18,lo8(2)
 350 014e 00C0      		rjmp .L14
 351               	.L12:
  43:moteur.cpp    **** 		ajustementTimer1(VITESSE_ROTATION,VITESSE_ROTATION,0x01); //Gauche
 352               		.loc 1 43 0
 353 0150 21E0      		ldi r18,lo8(1)
 354               	.L14:
 355 0152 462F      		mov r20,r22
 356 0154 CE01      		movw r24,r28
 357               	.LVL46:
 358 0156 0E94 0000 		call _ZN6Moteur16ajustementTimer1Ehhh
 359               	.LVL47:
  45:moteur.cpp    ****   	Utility::delay(degree * 10 + 100);
 360               		.loc 1 45 0
 361 015a 2AE0      		ldi r18,lo8(10)
 362 015c 129F      		mul r17,r18
 363 015e C001      		movw r24,r0
 364 0160 1124      		clr __zero_reg__
 365 0162 8C59      		subi r24,-100
 366 0164 9F4F      		sbci r25,-1
 367 0166 0E94 0000 		call _ZN7Utility5delayEj
GAS LISTING /var/folders/86/8ymzt0g934z5dpmztl89nd000000gn/T//cchcDLWH.s 			page 9


 368               	.LVL48:
  48:moteur.cpp    **** 	arreter();
 369               		.loc 1 48 0
 370 016a CE01      		movw r24,r28
 371               	/* epilogue start */
  49:moteur.cpp    **** }
 372               		.loc 1 49 0
 373 016c DF91      		pop r29
 374 016e CF91      		pop r28
 375               	.LVL49:
 376 0170 1F91      		pop r17
 377               	.LVL50:
  48:moteur.cpp    **** 	arreter();
 378               		.loc 1 48 0
 379 0172 0C94 0000 		jmp _ZN6Moteur7arreterEv
 380               	.LVL51:
 381               		.cfi_endproc
 382               	.LFE11:
 383               		.size	_ZN6Moteur7tournerEh, .-_ZN6Moteur7tournerEh
 384               	.Letext0:
 385               		.file 2 "/usr/local/CrossPack-AVR-20131216/avr/include/stdint.h"
 386               		.file 3 "utility.h"
 387               		.file 4 "moteur.h"
 388               		.file 5 "/usr/local/CrossPack-AVR-20131216/avr/include/math.h"